{
   <insert_a_suppression_name_here>
   Memcheck:Cond
   obj:/usr/lib/x86_64-linux-gnu/libLLVM-9.so.1
   fun:_ZN4llvm19MachineFunctionPass13runOnFunctionERNS_8FunctionE
   fun:_ZN4llvm13FPPassManager13runOnFunctionERNS_8FunctionE
   fun:_ZN4llvm13FPPassManager11runOnModuleERNS_6ModuleE
   fun:_ZN4llvm6legacy15PassManagerImpl3runERNS_6ModuleE
   fun:_ZN4llvm5MCJIT10emitObjectEPNS_6ModuleE
   fun:_ZN4llvm5MCJIT21generateCodeForModuleEPNS_6ModuleE
   fun:_ZN4llvm5MCJIT14finalizeObjectEv
   fun:LLVMGetPointerToGlobal
   obj:/usr/lib/x86_64-linux-gnu/dri/swrast_dri.so
   obj:/usr/lib/x86_64-linux-gnu/dri/swrast_dri.so
   obj:/usr/lib/x86_64-linux-gnu/dri/swrast_dri.so
}
{
   <insert_a_suppression_name_here>
   Memcheck:Leak
   match-leak-kinds: reachable
   fun:malloc
   fun:allocate_dtv_entry
   fun:allocate_and_init
   fun:tls_get_addr_tail
   fun:__tls_get_addr
   fun:_ZN4llvm21PrettyStackTraceEntryC2Ev
   fun:_ZN4llvm13FPPassManager13runOnFunctionERNS_8FunctionE
   fun:_ZN4llvm6legacy23FunctionPassManagerImpl3runERNS_8FunctionE
   fun:_ZN4llvm6legacy19FunctionPassManager3runERNS_8FunctionE
   fun:LLVMRunFunctionPassManager
   obj:*
   obj:*
   obj:*
   obj:*
}
{
   <insert_a_suppression_name_here>
   Memcheck:Leak
   match-leak-kinds: reachable
   fun:_Znwm
   obj:/usr/lib/x86_64-linux-gnu/libLLVM-9.so.1
   fun:_ZNK4llvm17ManagedStaticBase21RegisterManagedStaticEPFPvvEPFvS1_E
   fun:_ZNK4llvm15LLVMContextImpl14getOptPassGateEv
   fun:_ZNK4llvm12FunctionPass12skipFunctionERKNS_8FunctionE
   obj:/usr/lib/x86_64-linux-gnu/libLLVM-9.so.1
   fun:_ZN4llvm13FPPassManager13runOnFunctionERNS_8FunctionE
   fun:_ZN4llvm6legacy23FunctionPassManagerImpl3runERNS_8FunctionE
   fun:_ZN4llvm6legacy19FunctionPassManager3runERNS_8FunctionE
   fun:LLVMRunFunctionPassManager
   obj:*
   obj:*
}
{
   <insert_a_suppression_name_here>
   Memcheck:Leak
   match-leak-kinds: reachable
   fun:_Znwm
   obj:/usr/lib/x86_64-linux-gnu/libLLVM-9.so.1
   fun:_ZNK4llvm17ManagedStaticBase21RegisterManagedStaticEPFPvvEPFvS1_E
   fun:_ZN4llvm3sys14DynamicLibrary19getPermanentLibraryEPKcPNSt7__cxx1112basic_stringIcSt11char_traitsIcESaIcEEE
   fun:_ZN4llvm13EngineBuilder6createEPNS_13TargetMachineE
   obj:*
   obj:*
   obj:*
   obj:*
   obj:*
   obj:*
   obj:*
}
{
   <insert_a_suppression_name_here>
   Memcheck:Leak
   match-leak-kinds: reachable
   fun:_Znwm
   obj:/usr/lib/x86_64-linux-gnu/libLLVM-9.so.1
   fun:_ZNK4llvm17ManagedStaticBase21RegisterManagedStaticEPFPvvEPFvS1_E
   fun:_ZN4llvm6SDNode16getValueTypeListENS_3EVTE
   fun:_ZN4llvm12SelectionDAG7getNodeEjRKNS_5SDLocENS_3EVTENS_7SDValueENS_11SDNodeFlagsE
   fun:_ZN4llvm19SelectionDAGBuilder12visitBitCastERKNS_4UserE
   fun:_ZN4llvm19SelectionDAGBuilder5visitERKNS_11InstructionE
   fun:_ZN4llvm16SelectionDAGISel16SelectBasicBlockENS_14ilist_iteratorINS_12ilist_detail12node_optionsINS_11InstructionELb0ELb0EvEELb0ELb1EEES6_Rb
   fun:_ZN4llvm16SelectionDAGISel20SelectAllBasicBlocksERKNS_8FunctionE
   fun:_ZN4llvm16SelectionDAGISel20runOnMachineFunctionERNS_15MachineFunctionE
   obj:/usr/lib/x86_64-linux-gnu/libLLVM-9.so.1
   fun:_ZN4llvm19MachineFunctionPass13runOnFunctionERNS_8FunctionE
}
{
   <insert_a_suppression_name_here>
   Memcheck:Leak
   match-leak-kinds: reachable
   fun:_Znwm
   obj:/usr/lib/x86_64-linux-gnu/libLLVM-9.so.1
   fun:_ZNK4llvm17ManagedStaticBase21RegisterManagedStaticEPFPvvEPFvS1_E
   obj:/usr/lib/x86_64-linux-gnu/libLLVM-9.so.1
   fun:_ZN4llvm5MCJIT21generateCodeForModuleEPNS_6ModuleE
   fun:_ZN4llvm5MCJIT14finalizeObjectEv
   fun:LLVMGetPointerToGlobal
   obj:*
   obj:*
   obj:*
   obj:*
   obj:*
}
{
   <insert_a_suppression_name_here>
   Memcheck:Leak
   match-leak-kinds: reachable
   fun:malloc
   obj:/usr/lib/x86_64-linux-gnu/libLLVM-9.so.1
   fun:_ZN4llvm12PassRegistry12registerPassERKNS_8PassInfoEb
   obj:/usr/lib/x86_64-linux-gnu/libLLVM-9.so.1
   fun:__pthread_once_slow
   obj:/usr/lib/x86_64-linux-gnu/libLLVM-9.so.1
   fun:_ZN4llvm13createGVNPassEb
   fun:LLVMAddGVNPass
   obj:*
   obj:*
   obj:*
   obj:*
}
{
   <insert_a_suppression_name_here>
   Memcheck:Leak
   match-leak-kinds: reachable
   fun:malloc
   obj:/usr/lib/x86_64-linux-gnu/libLLVM-9.so.1
   fun:_ZN4llvm12PassRegistry12registerPassERKNS_8PassInfoEb
   obj:/usr/lib/x86_64-linux-gnu/libLLVM-9.so.1
   fun:__pthread_once_slow
   obj:/usr/lib/x86_64-linux-gnu/libLLVM-9.so.1
   fun:_ZN4llvm14createSROAPassEv
   fun:LLVMAddScalarReplAggregatesPass
   obj:*
   obj:*
   obj:*
   obj:*
}
{
   <insert_a_suppression_name_here>
   Memcheck:Leak
   match-leak-kinds: reachable
   fun:malloc
   obj:/usr/lib/x86_64-linux-gnu/libLLVM-9.so.1
   fun:_ZN4llvm12PassRegistry12registerPassERKNS_8PassInfoEb
   obj:/usr/lib/x86_64-linux-gnu/libLLVM-9.so.1
   fun:__pthread_once_slow
   fun:_ZN4llvm41initializeMemoryDependenceWrapperPassPassERNS_12PassRegistryE
   obj:/usr/lib/x86_64-linux-gnu/libLLVM-9.so.1
   fun:__pthread_once_slow
   obj:/usr/lib/x86_64-linux-gnu/libLLVM-9.so.1
   fun:_ZN4llvm13createGVNPassEb
   fun:LLVMAddGVNPass
   obj:*
}
{
   <insert_a_suppression_name_here>
   Memcheck:Leak
   match-leak-kinds: reachable
   fun:malloc
   obj:/usr/lib/x86_64-linux-gnu/libLLVM-9.so.1
   fun:_ZN4llvm12PassRegistry12registerPassERKNS_8PassInfoEb
   obj:/usr/lib/x86_64-linux-gnu/libLLVM-9.so.1
   fun:__pthread_once_slow
   fun:_ZN4llvm22initializeRAGreedyPassERNS_12PassRegistryE
   fun:_ZN4llvm17initializeCodeGenERNS_12PassRegistryE
   fun:_ZN4llvm16TargetPassConfigC1ERNS_17LLVMTargetMachineERNS_6legacy15PassManagerBaseE
   fun:_ZN4llvm16X86TargetMachine16createPassConfigERNS_6legacy15PassManagerBaseE
   fun:_ZN4llvm17LLVMTargetMachine17addPassesToEmitMCERNS_6legacy15PassManagerBaseERPNS_9MCContextERNS_17raw_pwrite_streamEb
   fun:_ZN4llvm5MCJIT10emitObjectEPNS_6ModuleE
   fun:_ZN4llvm5MCJIT21generateCodeForModuleEPNS_6ModuleE
}
{
   <insert_a_suppression_name_here>
   Memcheck:Leak
   match-leak-kinds: reachable
   fun:malloc
   obj:/usr/lib/x86_64-linux-gnu/libLLVM-9.so.1
   fun:_ZN4llvm12PassRegistry12registerPassERKNS_8PassInfoEb
   obj:/usr/lib/x86_64-linux-gnu/libLLVM-9.so.1
   fun:__pthread_once_slow
   fun:_ZN4llvm33createPromoteMemoryToRegisterPassEv
   fun:LLVMAddPromoteMemoryToRegisterPass
   obj:*
   obj:*
   obj:*
   obj:*
   obj:*
}
{
   <insert_a_suppression_name_here>
   Memcheck:Leak
   match-leak-kinds: reachable
   fun:_Znwm
   obj:/usr/lib/x86_64-linux-gnu/libLLVM-9.so.1
   fun:_ZNK4llvm17ManagedStaticBase21RegisterManagedStaticEPFPvvEPFvS1_E
   fun:_ZN4llvm6SDNode16getValueTypeListENS_3EVTE
   fun:_ZN4llvm12SelectionDAGC1ERKNS_13TargetMachineENS_10CodeGenOpt5LevelE
   fun:_ZN4llvm16SelectionDAGISelC2ERNS_13TargetMachineENS_10CodeGenOpt5LevelE
   fun:_ZN4llvm16createX86ISelDagERNS_16X86TargetMachineENS_10CodeGenOpt5LevelE
   obj:/usr/lib/x86_64-linux-gnu/libLLVM-9.so.1
   fun:_ZN4llvm16TargetPassConfig17addCoreISelPassesEv
   fun:_ZN4llvm16TargetPassConfig13addISelPassesEv
   fun:_ZN4llvm17LLVMTargetMachine17addPassesToEmitMCERNS_6legacy15PassManagerBaseERPNS_9MCContextERNS_17raw_pwrite_streamEb
   fun:_ZN4llvm5MCJIT10emitObjectEPNS_6ModuleE
}
{
   <insert_a_suppression_name_here>
   Memcheck:Leak
   match-leak-kinds: reachable
   fun:_Znwm
   obj:/usr/lib/x86_64-linux-gnu/libLLVM-9.so.1
   fun:_ZNK4llvm17ManagedStaticBase21RegisterManagedStaticEPFPvvEPFvS1_E
   fun:_ZN4llvm17lookupUnfoldTableEj
   fun:_ZNK4llvm12X86InstrInfo26getOpcodeAfterMemoryUnfoldEjbbPj
   obj:/usr/lib/x86_64-linux-gnu/libLLVM-9.so.1
   fun:_ZN4llvm19MachineFunctionPass13runOnFunctionERNS_8FunctionE
   fun:_ZN4llvm13FPPassManager13runOnFunctionERNS_8FunctionE
   fun:_ZN4llvm13FPPassManager11runOnModuleERNS_6ModuleE
   fun:_ZN4llvm6legacy15PassManagerImpl3runERNS_6ModuleE
   fun:_ZN4llvm5MCJIT10emitObjectEPNS_6ModuleE
   fun:_ZN4llvm5MCJIT21generateCodeForModuleEPNS_6ModuleE
}
{
   <insert_a_suppression_name_here>
   Memcheck:Leak
   match-leak-kinds: reachable
   fun:malloc
   obj:/usr/lib/x86_64-linux-gnu/libLLVM-9.so.1
   fun:_ZN4llvm12PassRegistry12registerPassERKNS_8PassInfoEb
   obj:/usr/lib/x86_64-linux-gnu/libLLVM-9.so.1
   fun:__pthread_once_slow
   fun:_ZN4llvm29initializeLiveRangeShrinkPassERNS_12PassRegistryE
   fun:_ZN4llvm17initializeCodeGenERNS_12PassRegistryE
   fun:_ZN4llvm16TargetPassConfigC1ERNS_17LLVMTargetMachineERNS_6legacy15PassManagerBaseE
   fun:_ZN4llvm16X86TargetMachine16createPassConfigERNS_6legacy15PassManagerBaseE
   fun:_ZN4llvm17LLVMTargetMachine17addPassesToEmitMCERNS_6legacy15PassManagerBaseERPNS_9MCContextERNS_17raw_pwrite_streamEb
   fun:_ZN4llvm5MCJIT10emitObjectEPNS_6ModuleE
   fun:_ZN4llvm5MCJIT21generateCodeForModuleEPNS_6ModuleE
}
{
   <insert_a_suppression_name_here>
   Memcheck:Leak
   match-leak-kinds: reachable
   fun:malloc
   obj:/usr/lib/x86_64-linux-gnu/libLLVM-9.so.1
   fun:_ZN4llvm12PassRegistry12registerPassERKNS_8PassInfoEb
   obj:/usr/lib/x86_64-linux-gnu/libLLVM-9.so.1
   fun:__pthread_once_slow
   fun:_ZN4llvm27initializeLiveVariablesPassERNS_12PassRegistryE
   fun:_ZN4llvm17initializeCodeGenERNS_12PassRegistryE
   fun:_ZN4llvm16TargetPassConfigC1ERNS_17LLVMTargetMachineERNS_6legacy15PassManagerBaseE
   fun:_ZN4llvm16X86TargetMachine16createPassConfigERNS_6legacy15PassManagerBaseE
   fun:_ZN4llvm17LLVMTargetMachine17addPassesToEmitMCERNS_6legacy15PassManagerBaseERPNS_9MCContextERNS_17raw_pwrite_streamEb
   fun:_ZN4llvm5MCJIT10emitObjectEPNS_6ModuleE
   fun:_ZN4llvm5MCJIT21generateCodeForModuleEPNS_6ModuleE
}
{
   <insert_a_suppression_name_here>
   Memcheck:Leak
   match-leak-kinds: reachable
   fun:malloc
   obj:/usr/lib/x86_64-linux-gnu/libLLVM-9.so.1
   fun:_ZN4llvm12PassRegistry12registerPassERKNS_8PassInfoEb
   obj:/usr/lib/x86_64-linux-gnu/libLLVM-9.so.1
   fun:__pthread_once_slow
   fun:_ZN4llvm26initializeOptimizePHIsPassERNS_12PassRegistryE
   fun:_ZN4llvm17initializeCodeGenERNS_12PassRegistryE
   fun:_ZN4llvm16TargetPassConfigC1ERNS_17LLVMTargetMachineERNS_6legacy15PassManagerBaseE
   fun:_ZN4llvm16X86TargetMachine16createPassConfigERNS_6legacy15PassManagerBaseE
   fun:_ZN4llvm17LLVMTargetMachine17addPassesToEmitMCERNS_6legacy15PassManagerBaseERPNS_9MCContextERNS_17raw_pwrite_streamEb
   fun:_ZN4llvm5MCJIT10emitObjectEPNS_6ModuleE
   fun:_ZN4llvm5MCJIT21generateCodeForModuleEPNS_6ModuleE
}
{
   <insert_a_suppression_name_here>
   Memcheck:Leak
   match-leak-kinds: reachable
   fun:malloc
   obj:/usr/lib/x86_64-linux-gnu/libLLVM-9.so.1
   fun:_ZN4llvm12PassRegistry12registerPassERKNS_8PassInfoEb
   obj:/usr/lib/x86_64-linux-gnu/libLLVM-9.so.1
   fun:__pthread_once_slow
   fun:_ZN4llvm32initializeIVUsersWrapperPassPassERNS_12PassRegistryE
   obj:/usr/lib/x86_64-linux-gnu/libLLVM-9.so.1
   fun:__pthread_once_slow
   fun:_ZN4llvm28createLoopStrengthReducePassEv
   fun:_ZN4llvm16TargetPassConfig11addIRPassesEv
   obj:/usr/lib/x86_64-linux-gnu/libLLVM-9.so.1
   fun:_ZN4llvm16TargetPassConfig13addISelPassesEv
}
{
   <insert_a_suppression_name_here>
   Memcheck:Leak
   match-leak-kinds: reachable
   fun:malloc
   obj:/usr/lib/x86_64-linux-gnu/libLLVM-9.so.1
   fun:_ZN4llvm12PassRegistry12registerPassERKNS_8PassInfoEb
   obj:/usr/lib/x86_64-linux-gnu/libLLVM-9.so.1
   fun:__pthread_once_slow
   fun:_ZN4llvm18createEarlyCSEPassEb
   fun:LLVMAddEarlyCSEPass
   obj:*
   obj:*
   obj:*
   obj:*
   obj:*
}
{
   <insert_a_suppression_name_here>
   Memcheck:Leak
   match-leak-kinds: reachable
   fun:malloc
   obj:/usr/lib/x86_64-linux-gnu/libLLVM-9.so.1
   fun:_ZN4llvm12PassRegistry12registerPassERKNS_8PassInfoEb
   obj:/usr/lib/x86_64-linux-gnu/libLLVM-9.so.1
   fun:__pthread_once_slow
   fun:_ZN4llvm29createConstantPropagationPassEv
   fun:LLVMAddConstantPropagationPass
   obj:*
   obj:*
   obj:*
   obj:*
   obj:*
}
{
   <insert_a_suppression_name_here>
   Memcheck:Leak
   match-leak-kinds: reachable
   fun:malloc
   obj:/usr/lib/x86_64-linux-gnu/libLLVM-9.so.1
   fun:_ZN4llvm12PassRegistry12registerPassERKNS_8PassInfoEb
   obj:/usr/lib/x86_64-linux-gnu/libLLVM-9.so.1
   fun:__pthread_once_slow
   fun:_ZN4llvm34initializeMemorySSAWrapperPassPassERNS_12PassRegistryE
   obj:/usr/lib/x86_64-linux-gnu/libLLVM-9.so.1
   fun:__pthread_once_slow
   fun:_ZN4llvm36initializeInterleavedLoadCombinePassERNS_12PassRegistryE
   fun:_ZN4llvm17initializeCodeGenERNS_12PassRegistryE
   fun:_ZN4llvm16TargetPassConfigC1ERNS_17LLVMTargetMachineERNS_6legacy15PassManagerBaseE
   fun:_ZN4llvm16X86TargetMachine16createPassConfigERNS_6legacy15PassManagerBaseE
}
{
   <insert_a_suppression_name_here>
   Memcheck:Leak
   match-leak-kinds: reachable
   fun:malloc
   obj:/usr/lib/x86_64-linux-gnu/libLLVM-9.so.1
   fun:_ZN4llvm12PassRegistry12registerPassERKNS_8PassInfoEb
   obj:/usr/lib/x86_64-linux-gnu/libLLVM-9.so.1
   fun:__pthread_once_slow
   fun:_ZN4llvm30initializeMachinePipelinerPassERNS_12PassRegistryE
   fun:_ZN4llvm17initializeCodeGenERNS_12PassRegistryE
   fun:_ZN4llvm16TargetPassConfigC1ERNS_17LLVMTargetMachineERNS_6legacy15PassManagerBaseE
   fun:_ZN4llvm16X86TargetMachine16createPassConfigERNS_6legacy15PassManagerBaseE
   fun:_ZN4llvm17LLVMTargetMachine17addPassesToEmitMCERNS_6legacy15PassManagerBaseERPNS_9MCContextERNS_17raw_pwrite_streamEb
   fun:_ZN4llvm5MCJIT10emitObjectEPNS_6ModuleE
   fun:_ZN4llvm5MCJIT21generateCodeForModuleEPNS_6ModuleE
}
{
   <insert_a_suppression_name_here>
   Memcheck:Leak
   match-leak-kinds: reachable
   fun:malloc
   obj:/usr/lib/x86_64-linux-gnu/libLLVM-9.so.1
   fun:_ZN4llvm12PassRegistry12registerPassERKNS_8PassInfoEb
   obj:/usr/lib/x86_64-linux-gnu/libLLVM-9.so.1
   fun:__pthread_once_slow
   fun:_ZN4llvm34initializePhiValuesWrapperPassPassERNS_12PassRegistryE
   obj:/usr/lib/x86_64-linux-gnu/libLLVM-9.so.1
   fun:__pthread_once_slow
   fun:_ZN4llvm41initializeMemoryDependenceWrapperPassPassERNS_12PassRegistryE
   obj:/usr/lib/x86_64-linux-gnu/libLLVM-9.so.1
   fun:__pthread_once_slow
   obj:/usr/lib/x86_64-linux-gnu/libLLVM-9.so.1
}
{
   <insert_a_suppression_name_here>
   Memcheck:Leak
   match-leak-kinds: reachable
   fun:malloc
   obj:/usr/lib/x86_64-linux-gnu/libLLVM-9.so.1
   fun:_ZN4llvm12PassRegistry12registerPassERKNS_8PassInfoEb
   obj:/usr/lib/x86_64-linux-gnu/libLLVM-9.so.1
   fun:__pthread_once_slow
   fun:_ZN4llvm24initializeLiveStacksPassERNS_12PassRegistryE
   fun:_ZN4llvm17initializeCodeGenERNS_12PassRegistryE
   fun:_ZN4llvm16TargetPassConfigC1ERNS_17LLVMTargetMachineERNS_6legacy15PassManagerBaseE
   fun:_ZN4llvm16X86TargetMachine16createPassConfigERNS_6legacy15PassManagerBaseE
   fun:_ZN4llvm17LLVMTargetMachine17addPassesToEmitMCERNS_6legacy15PassManagerBaseERPNS_9MCContextERNS_17raw_pwrite_streamEb
   fun:_ZN4llvm5MCJIT10emitObjectEPNS_6ModuleE
   fun:_ZN4llvm5MCJIT21generateCodeForModuleEPNS_6ModuleE
}
{
   <insert_a_suppression_name_here>
   Memcheck:Leak
   match-leak-kinds: reachable
   fun:malloc
   obj:/usr/lib/x86_64-linux-gnu/libLLVM-9.so.1
   fun:_ZN4llvm12PassRegistry12registerPassERKNS_8PassInfoEb
   obj:/usr/lib/x86_64-linux-gnu/libLLVM-9.so.1
   fun:__pthread_once_slow
   fun:_ZN4llvm36initializeMachineCopyPropagationPassERNS_12PassRegistryE
   fun:_ZN4llvm17initializeCodeGenERNS_12PassRegistryE
   fun:_ZN4llvm16TargetPassConfigC1ERNS_17LLVMTargetMachineERNS_6legacy15PassManagerBaseE
   fun:_ZN4llvm16X86TargetMachine16createPassConfigERNS_6legacy15PassManagerBaseE
   fun:_ZN4llvm17LLVMTargetMachine17addPassesToEmitMCERNS_6legacy15PassManagerBaseERPNS_9MCContextERNS_17raw_pwrite_streamEb
   fun:_ZN4llvm5MCJIT10emitObjectEPNS_6ModuleE
   fun:_ZN4llvm5MCJIT21generateCodeForModuleEPNS_6ModuleE
}
{
   <insert_a_suppression_name_here>
   Memcheck:Leak
   match-leak-kinds: reachable
   fun:malloc
   obj:/usr/lib/x86_64-linux-gnu/libLLVM-9.so.1
   fun:_ZN4llvm12PassRegistry12registerPassERKNS_8PassInfoEb
   obj:/usr/lib/x86_64-linux-gnu/libLLVM-9.so.1
   fun:__pthread_once_slow
   fun:_ZN4llvm24initializeVirtRegMapPassERNS_12PassRegistryE
   obj:/usr/lib/x86_64-linux-gnu/libLLVM-9.so.1
   fun:__pthread_once_slow
   fun:_ZN4llvm21initializeRABasicPassERNS_12PassRegistryE
   fun:_ZN4llvm17initializeCodeGenERNS_12PassRegistryE
   fun:_ZN4llvm16TargetPassConfigC1ERNS_17LLVMTargetMachineERNS_6legacy15PassManagerBaseE
   fun:_ZN4llvm16X86TargetMachine16createPassConfigERNS_6legacy15PassManagerBaseE
}
{
   <insert_a_suppression_name_here>
   Memcheck:Leak
   match-leak-kinds: reachable
   fun:malloc
   obj:/usr/lib/x86_64-linux-gnu/libLLVM-9.so.1
   fun:_ZN4llvm12PassRegistry12registerPassERKNS_8PassInfoEb
   obj:/usr/lib/x86_64-linux-gnu/libLLVM-9.so.1
   fun:__pthread_once_slow
   fun:_ZN4llvm33initializeSafeStackLegacyPassPassERNS_12PassRegistryE
   fun:_ZN4llvm17initializeCodeGenERNS_12PassRegistryE
   fun:_ZN4llvm16TargetPassConfigC1ERNS_17LLVMTargetMachineERNS_6legacy15PassManagerBaseE
   fun:_ZN4llvm16X86TargetMachine16createPassConfigERNS_6legacy15PassManagerBaseE
   fun:_ZN4llvm17LLVMTargetMachine17addPassesToEmitMCERNS_6legacy15PassManagerBaseERPNS_9MCContextERNS_17raw_pwrite_streamEb
   fun:_ZN4llvm5MCJIT10emitObjectEPNS_6ModuleE
   fun:_ZN4llvm5MCJIT21generateCodeForModuleEPNS_6ModuleE
}
{
   <insert_a_suppression_name_here>
   Memcheck:Leak
   match-leak-kinds: reachable
   fun:malloc
   obj:/usr/lib/x86_64-linux-gnu/libLLVM-9.so.1
   fun:_ZN4llvm12PassRegistry12registerPassERKNS_8PassInfoEb
   obj:/usr/lib/x86_64-linux-gnu/libLLVM-9.so.1
   fun:__pthread_once_slow
   fun:_ZN4llvm26createMergeICmpsLegacyPassEv
   fun:_ZN4llvm16TargetPassConfig11addIRPassesEv
   obj:/usr/lib/x86_64-linux-gnu/libLLVM-9.so.1
   fun:_ZN4llvm16TargetPassConfig13addISelPassesEv
   fun:_ZN4llvm17LLVMTargetMachine17addPassesToEmitMCERNS_6legacy15PassManagerBaseERPNS_9MCContextERNS_17raw_pwrite_streamEb
   fun:_ZN4llvm5MCJIT10emitObjectEPNS_6ModuleE
   fun:_ZN4llvm5MCJIT21generateCodeForModuleEPNS_6ModuleE
}
{
   <insert_a_suppression_name_here>
   Memcheck:Leak
   match-leak-kinds: reachable
   fun:malloc
   obj:/usr/lib/x86_64-linux-gnu/libLLVM-9.so.1
   fun:_ZN4llvm12PassRegistry12registerPassERKNS_8PassInfoEb
   obj:/usr/lib/x86_64-linux-gnu/libLLVM-9.so.1
   fun:__pthread_once_slow
   fun:_ZN4llvm43initializeBlockFrequencyInfoWrapperPassPassERNS_12PassRegistryE
   obj:/usr/lib/x86_64-linux-gnu/libLLVM-9.so.1
   fun:__pthread_once_slow
   fun:_ZN4llvm26createConstantHoistingPassEv
   fun:_ZN4llvm16TargetPassConfig11addIRPassesEv
   obj:/usr/lib/x86_64-linux-gnu/libLLVM-9.so.1
   fun:_ZN4llvm16TargetPassConfig13addISelPassesEv
}
{
   <insert_a_suppression_name_here>
   Memcheck:Leak
   match-leak-kinds: reachable
   fun:malloc
   obj:/usr/lib/x86_64-linux-gnu/libLLVM-9.so.1
   fun:_ZN4llvm12PassRegistry12registerPassERKNS_8PassInfoEb
   obj:/usr/lib/x86_64-linux-gnu/libLLVM-9.so.1
   fun:__pthread_once_slow
   fun:_ZN4llvm26createConstantHoistingPassEv
   fun:_ZN4llvm16TargetPassConfig11addIRPassesEv
   obj:/usr/lib/x86_64-linux-gnu/libLLVM-9.so.1
   fun:_ZN4llvm16TargetPassConfig13addISelPassesEv
   fun:_ZN4llvm17LLVMTargetMachine17addPassesToEmitMCERNS_6legacy15PassManagerBaseERPNS_9MCContextERNS_17raw_pwrite_streamEb
   fun:_ZN4llvm5MCJIT10emitObjectEPNS_6ModuleE
   fun:_ZN4llvm5MCJIT21generateCodeForModuleEPNS_6ModuleE
}
{
   <insert_a_suppression_name_here>
   Memcheck:Leak
   match-leak-kinds: reachable
   fun:malloc
   obj:/usr/lib/x86_64-linux-gnu/libLLVM-9.so.1
   fun:_ZN4llvm12PassRegistry12registerPassERKNS_8PassInfoEb
   obj:/usr/lib/x86_64-linux-gnu/libLLVM-9.so.1
   fun:__pthread_once_slow
   obj:/usr/lib/x86_64-linux-gnu/libLLVM-9.so.1
   fun:_ZN4llvm27createCFGSimplificationPassEjbbbbSt8functionIFbRKNS_8FunctionEEE
   fun:LLVMAddCFGSimplificationPass
   obj:*
   obj:*
   obj:*
   obj:*
}
{
   <insert_a_suppression_name_here>
   Memcheck:Leak
   match-leak-kinds: reachable
   fun:malloc
   obj:/usr/lib/x86_64-linux-gnu/libLLVM-9.so.1
   fun:_ZN4llvm12PassRegistry12registerPassERKNS_8PassInfoEb
   obj:/usr/lib/x86_64-linux-gnu/libLLVM-9.so.1
   fun:__pthread_once_slow
   fun:_ZN4llvm21createReassociatePassEv
   fun:LLVMAddReassociatePass
   obj:*
   obj:*
   obj:*
   obj:*
   obj:*
}
{
   <insert_a_suppression_name_here>
   Memcheck:Leak
   match-leak-kinds: reachable
   fun:malloc
   obj:/usr/lib/x86_64-linux-gnu/libLLVM-9.so.1
   fun:_ZN4llvm12PassRegistry12registerPassERKNS_8PassInfoEb
   obj:/usr/lib/x86_64-linux-gnu/libLLVM-9.so.1
   fun:__pthread_once_slow
   fun:LLVMAddInstructionCombiningPass
   obj:*
   obj:*
   obj:*
   obj:*
   obj:*
   obj:*
}
{
   <insert_a_suppression_name_here>
   Memcheck:Leak
   match-leak-kinds: reachable
   fun:malloc
   obj:/usr/lib/x86_64-linux-gnu/libLLVM-9.so.1
   fun:_ZN4llvm12PassRegistry12registerPassERKNS_8PassInfoEb
   obj:/usr/lib/x86_64-linux-gnu/libLLVM-9.so.1
   fun:__pthread_once_slow
   fun:_ZN4llvm30initializeEarlyIfConverterPassERNS_12PassRegistryE
   fun:_ZN4llvm17initializeCodeGenERNS_12PassRegistryE
   fun:_ZN4llvm16TargetPassConfigC1ERNS_17LLVMTargetMachineERNS_6legacy15PassManagerBaseE
   fun:_ZN4llvm16X86TargetMachine16createPassConfigERNS_6legacy15PassManagerBaseE
   fun:_ZN4llvm17LLVMTargetMachine17addPassesToEmitMCERNS_6legacy15PassManagerBaseERPNS_9MCContextERNS_17raw_pwrite_streamEb
   fun:_ZN4llvm5MCJIT10emitObjectEPNS_6ModuleE
   fun:_ZN4llvm5MCJIT21generateCodeForModuleEPNS_6ModuleE
}
{
   <insert_a_suppression_name_here>
   Memcheck:Leak
   match-leak-kinds: reachable
   fun:malloc
   obj:/usr/lib/x86_64-linux-gnu/libLLVM-9.so.1
   fun:_ZN4llvm12PassRegistry12registerPassERKNS_8PassInfoEb
   obj:/usr/lib/x86_64-linux-gnu/libLLVM-9.so.1
   fun:__pthread_once_slow
   fun:_ZN4llvm35initializeGCMachineCodeAnalysisPassERNS_12PassRegistryE
   fun:_ZN4llvm17initializeCodeGenERNS_12PassRegistryE
   fun:_ZN4llvm16TargetPassConfigC1ERNS_17LLVMTargetMachineERNS_6legacy15PassManagerBaseE
   fun:_ZN4llvm16X86TargetMachine16createPassConfigERNS_6legacy15PassManagerBaseE
   fun:_ZN4llvm17LLVMTargetMachine17addPassesToEmitMCERNS_6legacy15PassManagerBaseERPNS_9MCContextERNS_17raw_pwrite_streamEb
   fun:_ZN4llvm5MCJIT10emitObjectEPNS_6ModuleE
   fun:_ZN4llvm5MCJIT21generateCodeForModuleEPNS_6ModuleE
}
{
   <insert_a_suppression_name_here>
   Memcheck:Leak
   match-leak-kinds: reachable
   fun:malloc
   obj:/usr/lib/x86_64-linux-gnu/libLLVM-9.so.1
   fun:_ZN4llvm12PassRegistry12registerPassERKNS_8PassInfoEb
   obj:/usr/lib/x86_64-linux-gnu/libLLVM-9.so.1
   fun:__pthread_once_slow
   fun:_ZN4llvm25initializeSlotIndexesPassERNS_12PassRegistryE
   obj:/usr/lib/x86_64-linux-gnu/libLLVM-9.so.1
   fun:__pthread_once_slow
   fun:_ZN4llvm27initializeLiveIntervalsPassERNS_12PassRegistryE
   obj:/usr/lib/x86_64-linux-gnu/libLLVM-9.so.1
   fun:__pthread_once_slow
   fun:_ZN4llvm32initializeLiveDebugVariablesPassERNS_12PassRegistryE
}
{
   <insert_a_suppression_name_here>
   Memcheck:Leak
   match-leak-kinds: reachable
   fun:malloc
   obj:/usr/lib/x86_64-linux-gnu/libLLVM-9.so.1
   fun:_ZN4llvm12PassRegistry12registerPassERKNS_8PassInfoEb
   obj:/usr/lib/x86_64-linux-gnu/libLLVM-9.so.1
   fun:__pthread_once_slow
   fun:_ZN4llvm29initializeLowerIntrinsicsPassERNS_12PassRegistryE
   fun:_ZN4llvm17initializeCodeGenERNS_12PassRegistryE
   fun:_ZN4llvm16TargetPassConfigC1ERNS_17LLVMTargetMachineERNS_6legacy15PassManagerBaseE
   fun:_ZN4llvm16X86TargetMachine16createPassConfigERNS_6legacy15PassManagerBaseE
   fun:_ZN4llvm17LLVMTargetMachine17addPassesToEmitMCERNS_6legacy15PassManagerBaseERPNS_9MCContextERNS_17raw_pwrite_streamEb
   fun:_ZN4llvm5MCJIT10emitObjectEPNS_6ModuleE
   fun:_ZN4llvm5MCJIT21generateCodeForModuleEPNS_6ModuleE
}
{
   <insert_a_suppression_name_here>
   Memcheck:Leak
   match-leak-kinds: reachable
   fun:malloc
   obj:/usr/lib/x86_64-linux-gnu/libLLVM-9.so.1
   fun:_ZN4llvm12PassRegistry12registerPassERKNS_8PassInfoEb
   obj:/usr/lib/x86_64-linux-gnu/libLLVM-9.so.1
   fun:__pthread_once_slow
   fun:_ZN4llvm24initializeMachineCSEPassERNS_12PassRegistryE
   fun:_ZN4llvm17initializeCodeGenERNS_12PassRegistryE
   fun:_ZN4llvm16TargetPassConfigC1ERNS_17LLVMTargetMachineERNS_6legacy15PassManagerBaseE
   fun:_ZN4llvm16X86TargetMachine16createPassConfigERNS_6legacy15PassManagerBaseE
   fun:_ZN4llvm17LLVMTargetMachine17addPassesToEmitMCERNS_6legacy15PassManagerBaseERPNS_9MCContextERNS_17raw_pwrite_streamEb
   fun:_ZN4llvm5MCJIT10emitObjectEPNS_6ModuleE
   fun:_ZN4llvm5MCJIT21generateCodeForModuleEPNS_6ModuleE
}
{
   <insert_a_suppression_name_here>
   Memcheck:Leak
   match-leak-kinds: reachable
   fun:malloc
   obj:/usr/lib/x86_64-linux-gnu/libLLVM-9.so.1
   fun:_ZN4llvm12PassRegistry12registerPassERKNS_8PassInfoEb
   obj:/usr/lib/x86_64-linux-gnu/libLLVM-9.so.1
   fun:__pthread_once_slow
   fun:_ZN4llvm25initializeMachineLICMPassERNS_12PassRegistryE
   fun:_ZN4llvm17initializeCodeGenERNS_12PassRegistryE
   fun:_ZN4llvm16TargetPassConfigC1ERNS_17LLVMTargetMachineERNS_6legacy15PassManagerBaseE
   fun:_ZN4llvm16X86TargetMachine16createPassConfigERNS_6legacy15PassManagerBaseE
   fun:_ZN4llvm17LLVMTargetMachine17addPassesToEmitMCERNS_6legacy15PassManagerBaseERPNS_9MCContextERNS_17raw_pwrite_streamEb
   fun:_ZN4llvm5MCJIT10emitObjectEPNS_6ModuleE
   fun:_ZN4llvm5MCJIT21generateCodeForModuleEPNS_6ModuleE
}
{
   <insert_a_suppression_name_here>
   Memcheck:Leak
   match-leak-kinds: reachable
   fun:malloc
   obj:/usr/lib/x86_64-linux-gnu/libLLVM-9.so.1
   fun:_ZN4llvm12PassRegistry12registerPassERKNS_8PassInfoEb
   obj:/usr/lib/x86_64-linux-gnu/libLLVM-9.so.1
   fun:__pthread_once_slow
   fun:_ZN4llvm34initializePostMachineSchedulerPassERNS_12PassRegistryE
   fun:_ZN4llvm17initializeCodeGenERNS_12PassRegistryE
   fun:_ZN4llvm16TargetPassConfigC1ERNS_17LLVMTargetMachineERNS_6legacy15PassManagerBaseE
   fun:_ZN4llvm16X86TargetMachine16createPassConfigERNS_6legacy15PassManagerBaseE
   fun:_ZN4llvm17LLVMTargetMachine17addPassesToEmitMCERNS_6legacy15PassManagerBaseERPNS_9MCContextERNS_17raw_pwrite_streamEb
   fun:_ZN4llvm5MCJIT10emitObjectEPNS_6ModuleE
   fun:_ZN4llvm5MCJIT21generateCodeForModuleEPNS_6ModuleE
}
{
   <insert_a_suppression_name_here>
   Memcheck:Leak
   match-leak-kinds: reachable
   fun:malloc
   obj:/usr/lib/x86_64-linux-gnu/libLLVM-9.so.1
   fun:_ZN4llvm12PassRegistry12registerPassERKNS_8PassInfoEb
   obj:/usr/lib/x86_64-linux-gnu/libLLVM-9.so.1
   fun:__pthread_once_slow
   fun:_ZN4llvm24initializeShrinkWrapPassERNS_12PassRegistryE
   fun:_ZN4llvm17initializeCodeGenERNS_12PassRegistryE
   fun:_ZN4llvm16TargetPassConfigC1ERNS_17LLVMTargetMachineERNS_6legacy15PassManagerBaseE
   fun:_ZN4llvm16X86TargetMachine16createPassConfigERNS_6legacy15PassManagerBaseE
   fun:_ZN4llvm17LLVMTargetMachine17addPassesToEmitMCERNS_6legacy15PassManagerBaseERPNS_9MCContextERNS_17raw_pwrite_streamEb
   fun:_ZN4llvm5MCJIT10emitObjectEPNS_6ModuleE
   fun:_ZN4llvm5MCJIT21generateCodeForModuleEPNS_6ModuleE
}
{
   <insert_a_suppression_name_here>
   Memcheck:Leak
   match-leak-kinds: reachable
   fun:malloc
   obj:/usr/lib/x86_64-linux-gnu/libLLVM-9.so.1
   fun:_ZN4llvm12PassRegistry12registerPassERKNS_8PassInfoEb
   obj:/usr/lib/x86_64-linux-gnu/libLLVM-9.so.1
   fun:__pthread_once_slow
   fun:_ZN4llvm21createLowerEmuTLSPassEv
   fun:_ZN4llvm16TargetPassConfig13addISelPassesEv
   fun:_ZN4llvm17LLVMTargetMachine17addPassesToEmitMCERNS_6legacy15PassManagerBaseERPNS_9MCContextERNS_17raw_pwrite_streamEb
   fun:_ZN4llvm5MCJIT10emitObjectEPNS_6ModuleE
   fun:_ZN4llvm5MCJIT21generateCodeForModuleEPNS_6ModuleE
   fun:_ZN4llvm5MCJIT14finalizeObjectEv
   fun:LLVMGetPointerToGlobal
}
{
   <insert_a_suppression_name_here>
   Memcheck:Leak
   match-leak-kinds: reachable
   fun:malloc
   obj:/usr/lib/x86_64-linux-gnu/libLLVM-9.so.1
   fun:_ZN4llvm12PassRegistry12registerPassERKNS_8PassInfoEb
   obj:/usr/lib/x86_64-linux-gnu/libLLVM-9.so.1
   fun:__pthread_once_slow
   fun:_ZN4llvm28createLoopStrengthReducePassEv
   fun:_ZN4llvm16TargetPassConfig11addIRPassesEv
   obj:/usr/lib/x86_64-linux-gnu/libLLVM-9.so.1
   fun:_ZN4llvm16TargetPassConfig13addISelPassesEv
   fun:_ZN4llvm17LLVMTargetMachine17addPassesToEmitMCERNS_6legacy15PassManagerBaseERPNS_9MCContextERNS_17raw_pwrite_streamEb
   fun:_ZN4llvm5MCJIT10emitObjectEPNS_6ModuleE
   fun:_ZN4llvm5MCJIT21generateCodeForModuleEPNS_6ModuleE
}
{
   <insert_a_suppression_name_here>
   Memcheck:Leak
   match-leak-kinds: reachable
   fun:malloc
   obj:/usr/lib/x86_64-linux-gnu/libLLVM-9.so.1
   fun:_ZN4llvm12PassRegistry12registerPassERKNS_8PassInfoEb
   obj:/usr/lib/x86_64-linux-gnu/libLLVM-9.so.1
   fun:__pthread_once_slow
   fun:_ZN4llvm46initializeBranchProbabilityInfoWrapperPassPassERNS_12PassRegistryE
   obj:/usr/lib/x86_64-linux-gnu/libLLVM-9.so.1
   fun:__pthread_once_slow
   fun:_ZN4llvm43initializeBlockFrequencyInfoWrapperPassPassERNS_12PassRegistryE
   obj:/usr/lib/x86_64-linux-gnu/libLLVM-9.so.1
   fun:__pthread_once_slow
   fun:_ZN4llvm26createConstantHoistingPassEv
}
{
   <insert_a_suppression_name_here>
   Memcheck:Leak
   match-leak-kinds: reachable
   fun:malloc
   obj:/usr/lib/x86_64-linux-gnu/libLLVM-9.so.1
   fun:_ZN4llvm12PassRegistry12registerPassERKNS_8PassInfoEb
   obj:/usr/lib/x86_64-linux-gnu/libLLVM-9.so.1
   fun:__pthread_once_slow
   fun:_ZN4llvm30initializeExpandMemCmpPassPassERNS_12PassRegistryE
   fun:_ZN4llvm17initializeCodeGenERNS_12PassRegistryE
   fun:_ZN4llvm16TargetPassConfigC1ERNS_17LLVMTargetMachineERNS_6legacy15PassManagerBaseE
   fun:_ZN4llvm16X86TargetMachine16createPassConfigERNS_6legacy15PassManagerBaseE
   fun:_ZN4llvm17LLVMTargetMachine17addPassesToEmitMCERNS_6legacy15PassManagerBaseERPNS_9MCContextERNS_17raw_pwrite_streamEb
   fun:_ZN4llvm5MCJIT10emitObjectEPNS_6ModuleE
   fun:_ZN4llvm5MCJIT21generateCodeForModuleEPNS_6ModuleE
}
{
   <insert_a_suppression_name_here>
   Memcheck:Leak
   match-leak-kinds: reachable
   fun:malloc
   obj:/usr/lib/x86_64-linux-gnu/libLLVM-9.so.1
   fun:_ZN4llvm12PassRegistry12registerPassERKNS_8PassInfoEb
   obj:/usr/lib/x86_64-linux-gnu/libLLVM-9.so.1
   fun:__pthread_once_slow
   fun:_ZN4llvm25initializeIfConverterPassERNS_12PassRegistryE
   fun:_ZN4llvm17initializeCodeGenERNS_12PassRegistryE
   fun:_ZN4llvm16TargetPassConfigC1ERNS_17LLVMTargetMachineERNS_6legacy15PassManagerBaseE
   fun:_ZN4llvm16X86TargetMachine16createPassConfigERNS_6legacy15PassManagerBaseE
   fun:_ZN4llvm17LLVMTargetMachine17addPassesToEmitMCERNS_6legacy15PassManagerBaseERPNS_9MCContextERNS_17raw_pwrite_streamEb
   fun:_ZN4llvm5MCJIT10emitObjectEPNS_6ModuleE
   fun:_ZN4llvm5MCJIT21generateCodeForModuleEPNS_6ModuleE
}
{
   <insert_a_suppression_name_here>
   Memcheck:Leak
   match-leak-kinds: reachable
   fun:malloc
   obj:/usr/lib/x86_64-linux-gnu/libLLVM-9.so.1
   fun:_ZN4llvm12PassRegistry12registerPassERKNS_8PassInfoEb
   obj:/usr/lib/x86_64-linux-gnu/libLLVM-9.so.1
   fun:__pthread_once_slow
   fun:_ZN4llvm28initializeMachineSinkingPassERNS_12PassRegistryE
   fun:_ZN4llvm17initializeCodeGenERNS_12PassRegistryE
   fun:_ZN4llvm16TargetPassConfigC1ERNS_17LLVMTargetMachineERNS_6legacy15PassManagerBaseE
   fun:_ZN4llvm16X86TargetMachine16createPassConfigERNS_6legacy15PassManagerBaseE
   fun:_ZN4llvm17LLVMTargetMachine17addPassesToEmitMCERNS_6legacy15PassManagerBaseERPNS_9MCContextERNS_17raw_pwrite_streamEb
   fun:_ZN4llvm5MCJIT10emitObjectEPNS_6ModuleE
   fun:_ZN4llvm5MCJIT21generateCodeForModuleEPNS_6ModuleE
}
{
   <insert_a_suppression_name_here>
   Memcheck:Leak
   match-leak-kinds: reachable
   fun:malloc
   obj:/usr/lib/x86_64-linux-gnu/libLLVM-9.so.1
   fun:_ZN4llvm12PassRegistry12registerPassERKNS_8PassInfoEb
   obj:/usr/lib/x86_64-linux-gnu/libLLVM-9.so.1
   fun:__pthread_once_slow
   fun:_ZN4llvm17initializePEIPassERNS_12PassRegistryE
   fun:_ZN4llvm17initializeCodeGenERNS_12PassRegistryE
   fun:_ZN4llvm16TargetPassConfigC1ERNS_17LLVMTargetMachineERNS_6legacy15PassManagerBaseE
   fun:_ZN4llvm16X86TargetMachine16createPassConfigERNS_6legacy15PassManagerBaseE
   fun:_ZN4llvm17LLVMTargetMachine17addPassesToEmitMCERNS_6legacy15PassManagerBaseERPNS_9MCContextERNS_17raw_pwrite_streamEb
   fun:_ZN4llvm5MCJIT10emitObjectEPNS_6ModuleE
   fun:_ZN4llvm5MCJIT21generateCodeForModuleEPNS_6ModuleE
}
{
   <insert_a_suppression_name_here>
   Memcheck:Leak
   match-leak-kinds: reachable
   fun:malloc
   obj:/usr/lib/x86_64-linux-gnu/libLLVM-9.so.1
   fun:_ZN4llvm12PassRegistry12registerPassERKNS_8PassInfoEb
   obj:/usr/lib/x86_64-linux-gnu/libLLVM-9.so.1
   fun:__pthread_once_slow
   fun:_ZN4llvm31initializePeepholeOptimizerPassERNS_12PassRegistryE
   fun:_ZN4llvm17initializeCodeGenERNS_12PassRegistryE
   fun:_ZN4llvm16TargetPassConfigC1ERNS_17LLVMTargetMachineERNS_6legacy15PassManagerBaseE
   fun:_ZN4llvm16X86TargetMachine16createPassConfigERNS_6legacy15PassManagerBaseE
   fun:_ZN4llvm17LLVMTargetMachine17addPassesToEmitMCERNS_6legacy15PassManagerBaseERPNS_9MCContextERNS_17raw_pwrite_streamEb
   fun:_ZN4llvm5MCJIT10emitObjectEPNS_6ModuleE
   fun:_ZN4llvm5MCJIT21generateCodeForModuleEPNS_6ModuleE
}
{
   <insert_a_suppression_name_here>
   Memcheck:Leak
   match-leak-kinds: reachable
   fun:malloc
   obj:/usr/lib/x86_64-linux-gnu/libLLVM-9.so.1
   fun:_ZN4llvm12PassRegistry12registerPassERKNS_8PassInfoEb
   obj:/usr/lib/x86_64-linux-gnu/libLLVM-9.so.1
   fun:__pthread_once_slow
   fun:_ZN4llvm26initializeRegAllocFastPassERNS_12PassRegistryE
   fun:_ZN4llvm17initializeCodeGenERNS_12PassRegistryE
   fun:_ZN4llvm16TargetPassConfigC1ERNS_17LLVMTargetMachineERNS_6legacy15PassManagerBaseE
   fun:_ZN4llvm16X86TargetMachine16createPassConfigERNS_6legacy15PassManagerBaseE
   fun:_ZN4llvm17LLVMTargetMachine17addPassesToEmitMCERNS_6legacy15PassManagerBaseERPNS_9MCContextERNS_17raw_pwrite_streamEb
   fun:_ZN4llvm5MCJIT10emitObjectEPNS_6ModuleE
   fun:_ZN4llvm5MCJIT21generateCodeForModuleEPNS_6ModuleE
}
{
   <insert_a_suppression_name_here>
   Memcheck:Leak
   match-leak-kinds: reachable
   fun:malloc
   obj:/usr/lib/x86_64-linux-gnu/libLLVM-9.so.1
   fun:_ZN4llvm12PassRegistry12registerPassERKNS_8PassInfoEb
   obj:/usr/lib/x86_64-linux-gnu/libLLVM-9.so.1
   fun:__pthread_once_slow
   fun:_ZN4llvm26initializeWinEHPreparePassERNS_12PassRegistryE
   fun:_ZN4llvm17initializeCodeGenERNS_12PassRegistryE
   fun:_ZN4llvm16TargetPassConfigC1ERNS_17LLVMTargetMachineERNS_6legacy15PassManagerBaseE
   fun:_ZN4llvm16X86TargetMachine16createPassConfigERNS_6legacy15PassManagerBaseE
   fun:_ZN4llvm17LLVMTargetMachine17addPassesToEmitMCERNS_6legacy15PassManagerBaseERPNS_9MCContextERNS_17raw_pwrite_streamEb
   fun:_ZN4llvm5MCJIT10emitObjectEPNS_6ModuleE
   fun:_ZN4llvm5MCJIT21generateCodeForModuleEPNS_6ModuleE
}
{
   <insert_a_suppression_name_here>
   Memcheck:Leak
   match-leak-kinds: reachable
   fun:malloc
   obj:/usr/lib/x86_64-linux-gnu/libLLVM-9.so.1
   fun:_ZN4llvm12PassRegistry12registerPassERKNS_8PassInfoEb
   obj:/usr/lib/x86_64-linux-gnu/libLLVM-9.so.1
   fun:__pthread_once_slow
   fun:_ZN4llvm26initializeAtomicExpandPassERNS_12PassRegistryE
   fun:_ZN4llvm17initializeCodeGenERNS_12PassRegistryE
   fun:_ZN4llvm16TargetPassConfigC1ERNS_17LLVMTargetMachineERNS_6legacy15PassManagerBaseE
   fun:_ZN4llvm16X86TargetMachine16createPassConfigERNS_6legacy15PassManagerBaseE
   fun:_ZN4llvm17LLVMTargetMachine17addPassesToEmitMCERNS_6legacy15PassManagerBaseERPNS_9MCContextERNS_17raw_pwrite_streamEb
   fun:_ZN4llvm5MCJIT10emitObjectEPNS_6ModuleE
   fun:_ZN4llvm5MCJIT21generateCodeForModuleEPNS_6ModuleE
}
{
   <insert_a_suppression_name_here>
   Memcheck:Leak
   match-leak-kinds: reachable
   fun:malloc
   obj:/usr/lib/x86_64-linux-gnu/libLLVM-9.so.1
   fun:_ZN4llvm12PassRegistry12registerPassERKNS_8PassInfoEb
   obj:/usr/lib/x86_64-linux-gnu/libLLVM-9.so.1
   fun:__pthread_once_slow
   fun:_ZN4llvm30initializeBranchFolderPassPassERNS_12PassRegistryE
   fun:_ZN4llvm17initializeCodeGenERNS_12PassRegistryE
   fun:_ZN4llvm16TargetPassConfigC1ERNS_17LLVMTargetMachineERNS_6legacy15PassManagerBaseE
   fun:_ZN4llvm16X86TargetMachine16createPassConfigERNS_6legacy15PassManagerBaseE
   fun:_ZN4llvm17LLVMTargetMachine17addPassesToEmitMCERNS_6legacy15PassManagerBaseERPNS_9MCContextERNS_17raw_pwrite_streamEb
   fun:_ZN4llvm5MCJIT10emitObjectEPNS_6ModuleE
   fun:_ZN4llvm5MCJIT21generateCodeForModuleEPNS_6ModuleE
}
{
   <insert_a_suppression_name_here>
   Memcheck:Leak
   match-leak-kinds: reachable
   fun:malloc
   obj:/usr/lib/x86_64-linux-gnu/libLLVM-9.so.1
   fun:_ZN4llvm12PassRegistry12registerPassERKNS_8PassInfoEb
   obj:/usr/lib/x86_64-linux-gnu/libLLVM-9.so.1
   fun:__pthread_once_slow
   fun:_ZN4llvm26initializeExpandPostRAPassERNS_12PassRegistryE
   fun:_ZN4llvm17initializeCodeGenERNS_12PassRegistryE
   fun:_ZN4llvm16TargetPassConfigC1ERNS_17LLVMTargetMachineERNS_6legacy15PassManagerBaseE
   fun:_ZN4llvm16X86TargetMachine16createPassConfigERNS_6legacy15PassManagerBaseE
   fun:_ZN4llvm17LLVMTargetMachine17addPassesToEmitMCERNS_6legacy15PassManagerBaseERPNS_9MCContextERNS_17raw_pwrite_streamEb
   fun:_ZN4llvm5MCJIT10emitObjectEPNS_6ModuleE
   fun:_ZN4llvm5MCJIT21generateCodeForModuleEPNS_6ModuleE
}
{
   <insert_a_suppression_name_here>
   Memcheck:Leak
   match-leak-kinds: reachable
   fun:malloc
   obj:/usr/lib/x86_64-linux-gnu/libLLVM-9.so.1
   fun:_ZN4llvm12PassRegistry12registerPassERKNS_8PassInfoEb
   obj:/usr/lib/x86_64-linux-gnu/libLLVM-9.so.1
   fun:__pthread_once_slow
   fun:_ZN4llvm28initializeFEntryInserterPassERNS_12PassRegistryE
   fun:_ZN4llvm17initializeCodeGenERNS_12PassRegistryE
   fun:_ZN4llvm16TargetPassConfigC1ERNS_17LLVMTargetMachineERNS_6legacy15PassManagerBaseE
   fun:_ZN4llvm16X86TargetMachine16createPassConfigERNS_6legacy15PassManagerBaseE
   fun:_ZN4llvm17LLVMTargetMachine17addPassesToEmitMCERNS_6legacy15PassManagerBaseERPNS_9MCContextERNS_17raw_pwrite_streamEb
   fun:_ZN4llvm5MCJIT10emitObjectEPNS_6ModuleE
   fun:_ZN4llvm5MCJIT21generateCodeForModuleEPNS_6ModuleE
}
{
   <insert_a_suppression_name_here>
   Memcheck:Leak
   match-leak-kinds: reachable
   fun:malloc
   obj:/usr/lib/x86_64-linux-gnu/libLLVM-9.so.1
   fun:_ZN4llvm12PassRegistry12registerPassERKNS_8PassInfoEb
   obj:/usr/lib/x86_64-linux-gnu/libLLVM-9.so.1
   fun:__pthread_once_slow
   fun:_ZN4llvm26initializeFinalizeISelPassERNS_12PassRegistryE
   fun:_ZN4llvm17initializeCodeGenERNS_12PassRegistryE
   fun:_ZN4llvm16TargetPassConfigC1ERNS_17LLVMTargetMachineERNS_6legacy15PassManagerBaseE
   fun:_ZN4llvm16X86TargetMachine16createPassConfigERNS_6legacy15PassManagerBaseE
   fun:_ZN4llvm17LLVMTargetMachine17addPassesToEmitMCERNS_6legacy15PassManagerBaseERPNS_9MCContextERNS_17raw_pwrite_streamEb
   fun:_ZN4llvm5MCJIT10emitObjectEPNS_6ModuleE
   fun:_ZN4llvm5MCJIT21generateCodeForModuleEPNS_6ModuleE
}
{
   <insert_a_suppression_name_here>
   Memcheck:Leak
   match-leak-kinds: reachable
   fun:malloc
   obj:/usr/lib/x86_64-linux-gnu/libLLVM-9.so.1
   fun:_ZN4llvm12PassRegistry12registerPassERKNS_8PassInfoEb
   obj:/usr/lib/x86_64-linux-gnu/libLLVM-9.so.1
   fun:__pthread_once_slow
   fun:_ZN4llvm27initializeLiveIntervalsPassERNS_12PassRegistryE
   obj:/usr/lib/x86_64-linux-gnu/libLLVM-9.so.1
   fun:__pthread_once_slow
   fun:_ZN4llvm32initializeLiveDebugVariablesPassERNS_12PassRegistryE
   fun:_ZN4llvm17initializeCodeGenERNS_12PassRegistryE
   fun:_ZN4llvm16TargetPassConfigC1ERNS_17LLVMTargetMachineERNS_6legacy15PassManagerBaseE
   fun:_ZN4llvm16X86TargetMachine16createPassConfigERNS_6legacy15PassManagerBaseE
}
{
   <insert_a_suppression_name_here>
   Memcheck:Leak
   match-leak-kinds: reachable
   fun:malloc
   obj:/usr/lib/x86_64-linux-gnu/libLLVM-9.so.1
   fun:_ZN4llvm12PassRegistry12registerPassERKNS_8PassInfoEb
   obj:/usr/lib/x86_64-linux-gnu/libLLVM-9.so.1
   fun:__pthread_once_slow
   fun:_ZN4llvm32initializeLiveDebugVariablesPassERNS_12PassRegistryE
   fun:_ZN4llvm17initializeCodeGenERNS_12PassRegistryE
   fun:_ZN4llvm16TargetPassConfigC1ERNS_17LLVMTargetMachineERNS_6legacy15PassManagerBaseE
   fun:_ZN4llvm16X86TargetMachine16createPassConfigERNS_6legacy15PassManagerBaseE
   fun:_ZN4llvm17LLVMTargetMachine17addPassesToEmitMCERNS_6legacy15PassManagerBaseERPNS_9MCContextERNS_17raw_pwrite_streamEb
   fun:_ZN4llvm5MCJIT10emitObjectEPNS_6ModuleE
   fun:_ZN4llvm5MCJIT21generateCodeForModuleEPNS_6ModuleE
}
{
   <insert_a_suppression_name_here>
   Memcheck:Leak
   match-leak-kinds: reachable
   fun:malloc
   obj:/usr/lib/x86_64-linux-gnu/libLLVM-9.so.1
   fun:_ZN4llvm12PassRegistry12registerPassERKNS_8PassInfoEb
   obj:/usr/lib/x86_64-linux-gnu/libLLVM-9.so.1
   fun:__pthread_once_slow
   fun:_ZN4llvm29initializePostRASchedulerPassERNS_12PassRegistryE
   fun:_ZN4llvm17initializeCodeGenERNS_12PassRegistryE
   fun:_ZN4llvm16TargetPassConfigC1ERNS_17LLVMTargetMachineERNS_6legacy15PassManagerBaseE
   fun:_ZN4llvm16X86TargetMachine16createPassConfigERNS_6legacy15PassManagerBaseE
   fun:_ZN4llvm17LLVMTargetMachine17addPassesToEmitMCERNS_6legacy15PassManagerBaseERPNS_9MCContextERNS_17raw_pwrite_streamEb
   fun:_ZN4llvm5MCJIT10emitObjectEPNS_6ModuleE
   fun:_ZN4llvm5MCJIT21generateCodeForModuleEPNS_6ModuleE
}
{
   <insert_a_suppression_name_here>
   Memcheck:Leak
   match-leak-kinds: reachable
   fun:malloc
   obj:/usr/lib/x86_64-linux-gnu/libLLVM-9.so.1
   fun:_ZN4llvm12PassRegistry12registerPassERKNS_8PassInfoEb
   obj:/usr/lib/x86_64-linux-gnu/libLLVM-9.so.1
   fun:__pthread_once_slow
   fun:_ZN4llvm27initializeLiveRegMatrixPassERNS_12PassRegistryE
   obj:/usr/lib/x86_64-linux-gnu/libLLVM-9.so.1
   fun:__pthread_once_slow
   fun:_ZN4llvm21initializeRABasicPassERNS_12PassRegistryE
   fun:_ZN4llvm17initializeCodeGenERNS_12PassRegistryE
   fun:_ZN4llvm16TargetPassConfigC1ERNS_17LLVMTargetMachineERNS_6legacy15PassManagerBaseE
   fun:_ZN4llvm16X86TargetMachine16createPassConfigERNS_6legacy15PassManagerBaseE
}
{
   <insert_a_suppression_name_here>
   Memcheck:Leak
   match-leak-kinds: reachable
   fun:malloc
   obj:/usr/lib/x86_64-linux-gnu/libLLVM-9.so.1
   fun:_ZN4llvm12PassRegistry12registerPassERKNS_8PassInfoEb
   obj:/usr/lib/x86_64-linux-gnu/libLLVM-9.so.1
   fun:__pthread_once_slow
   fun:_ZN4llvm21initializeRABasicPassERNS_12PassRegistryE
   fun:_ZN4llvm17initializeCodeGenERNS_12PassRegistryE
   fun:_ZN4llvm16TargetPassConfigC1ERNS_17LLVMTargetMachineERNS_6legacy15PassManagerBaseE
   fun:_ZN4llvm16X86TargetMachine16createPassConfigERNS_6legacy15PassManagerBaseE
   fun:_ZN4llvm17LLVMTargetMachine17addPassesToEmitMCERNS_6legacy15PassManagerBaseERPNS_9MCContextERNS_17raw_pwrite_streamEb
   fun:_ZN4llvm5MCJIT10emitObjectEPNS_6ModuleE
   fun:_ZN4llvm5MCJIT21generateCodeForModuleEPNS_6ModuleE
}
{
   <insert_a_suppression_name_here>
   Memcheck:Leak
   match-leak-kinds: reachable
   fun:malloc
   obj:/usr/lib/x86_64-linux-gnu/libLLVM-9.so.1
   fun:_ZN4llvm12PassRegistry12registerPassERKNS_8PassInfoEb
   obj:/usr/lib/x86_64-linux-gnu/libLLVM-9.so.1
   fun:__pthread_once_slow
   fun:_ZN4llvm27initializeWasmEHPreparePassERNS_12PassRegistryE
   fun:_ZN4llvm17initializeCodeGenERNS_12PassRegistryE
   fun:_ZN4llvm16TargetPassConfigC1ERNS_17LLVMTargetMachineERNS_6legacy15PassManagerBaseE
   fun:_ZN4llvm16X86TargetMachine16createPassConfigERNS_6legacy15PassManagerBaseE
   fun:_ZN4llvm17LLVMTargetMachine17addPassesToEmitMCERNS_6legacy15PassManagerBaseERPNS_9MCContextERNS_17raw_pwrite_streamEb
   fun:_ZN4llvm5MCJIT10emitObjectEPNS_6ModuleE
   fun:_ZN4llvm5MCJIT21generateCodeForModuleEPNS_6ModuleE
}
{
   <insert_a_suppression_name_here>
   Memcheck:Leak
   match-leak-kinds: reachable
   fun:malloc
   obj:/usr/lib/x86_64-linux-gnu/libLLVM-9.so.1
   fun:_ZN4llvm12PassRegistry12registerPassERKNS_8PassInfoEb
   obj:/usr/lib/x86_64-linux-gnu/libLLVM-9.so.1
   fun:__pthread_once_slow
   fun:_ZN4llvm26initializeLoopSimplifyPassERNS_12PassRegistryE
   obj:/usr/lib/x86_64-linux-gnu/libLLVM-9.so.1
   fun:__pthread_once_slow
   fun:_ZN4llvm28createLoopStrengthReducePassEv
   fun:_ZN4llvm16TargetPassConfig11addIRPassesEv
   obj:/usr/lib/x86_64-linux-gnu/libLLVM-9.so.1
   fun:_ZN4llvm16TargetPassConfig13addISelPassesEv
}
{
   <insert_a_suppression_name_here>
   Memcheck:Leak
   match-leak-kinds: reachable
   fun:malloc
   obj:/usr/lib/x86_64-linux-gnu/libLLVM-9.so.1
   fun:_ZN4llvm12PassRegistry12registerPassERKNS_8PassInfoEb
   obj:/usr/lib/x86_64-linux-gnu/libLLVM-9.so.1
   fun:__pthread_once_slow
   fun:_ZN4llvm28initializeCodeGenPreparePassERNS_12PassRegistryE
   fun:_ZN4llvm17initializeCodeGenERNS_12PassRegistryE
   fun:_ZN4llvm16TargetPassConfigC1ERNS_17LLVMTargetMachineERNS_6legacy15PassManagerBaseE
   fun:_ZN4llvm16X86TargetMachine16createPassConfigERNS_6legacy15PassManagerBaseE
   fun:_ZN4llvm17LLVMTargetMachine17addPassesToEmitMCERNS_6legacy15PassManagerBaseERPNS_9MCContextERNS_17raw_pwrite_streamEb
   fun:_ZN4llvm5MCJIT10emitObjectEPNS_6ModuleE
   fun:_ZN4llvm5MCJIT21generateCodeForModuleEPNS_6ModuleE
}
{
   <insert_a_suppression_name_here>
   Memcheck:Leak
   match-leak-kinds: reachable
   fun:malloc
   obj:/usr/lib/x86_64-linux-gnu/libLLVM-9.so.1
   fun:_ZN4llvm12PassRegistry12registerPassERKNS_8PassInfoEb
   obj:/usr/lib/x86_64-linux-gnu/libLLVM-9.so.1
   fun:__pthread_once_slow
   fun:_ZN4llvm28initializeDwarfEHPreparePassERNS_12PassRegistryE
   fun:_ZN4llvm17initializeCodeGenERNS_12PassRegistryE
   fun:_ZN4llvm16TargetPassConfigC1ERNS_17LLVMTargetMachineERNS_6legacy15PassManagerBaseE
   fun:_ZN4llvm16X86TargetMachine16createPassConfigERNS_6legacy15PassManagerBaseE
   fun:_ZN4llvm17LLVMTargetMachine17addPassesToEmitMCERNS_6legacy15PassManagerBaseERPNS_9MCContextERNS_17raw_pwrite_streamEb
   fun:_ZN4llvm5MCJIT10emitObjectEPNS_6ModuleE
   fun:_ZN4llvm5MCJIT21generateCodeForModuleEPNS_6ModuleE
}
{
   <insert_a_suppression_name_here>
   Memcheck:Leak
   match-leak-kinds: reachable
   fun:malloc
   obj:/usr/lib/x86_64-linux-gnu/libLLVM-9.so.1
   fun:_ZN4llvm12PassRegistry12registerPassERKNS_8PassInfoEb
   obj:/usr/lib/x86_64-linux-gnu/libLLVM-9.so.1
   fun:__pthread_once_slow
   fun:_ZN4llvm27initializeFuncletLayoutPassERNS_12PassRegistryE
   fun:_ZN4llvm17initializeCodeGenERNS_12PassRegistryE
   fun:_ZN4llvm16TargetPassConfigC1ERNS_17LLVMTargetMachineERNS_6legacy15PassManagerBaseE
   fun:_ZN4llvm16X86TargetMachine16createPassConfigERNS_6legacy15PassManagerBaseE
   fun:_ZN4llvm17LLVMTargetMachine17addPassesToEmitMCERNS_6legacy15PassManagerBaseERPNS_9MCContextERNS_17raw_pwrite_streamEb
   fun:_ZN4llvm5MCJIT10emitObjectEPNS_6ModuleE
   fun:_ZN4llvm5MCJIT21generateCodeForModuleEPNS_6ModuleE
}
{
   <insert_a_suppression_name_here>
   Memcheck:Leak
   match-leak-kinds: reachable
   fun:malloc
   obj:/usr/lib/x86_64-linux-gnu/libLLVM-9.so.1
   fun:_ZN4llvm12PassRegistry12registerPassERKNS_8PassInfoEb
   obj:/usr/lib/x86_64-linux-gnu/libLLVM-9.so.1
   fun:__pthread_once_slow
   fun:_ZN4llvm27initializeHardwareLoopsPassERNS_12PassRegistryE
   fun:_ZN4llvm17initializeCodeGenERNS_12PassRegistryE
   fun:_ZN4llvm16TargetPassConfigC1ERNS_17LLVMTargetMachineERNS_6legacy15PassManagerBaseE
   fun:_ZN4llvm16X86TargetMachine16createPassConfigERNS_6legacy15PassManagerBaseE
   fun:_ZN4llvm17LLVMTargetMachine17addPassesToEmitMCERNS_6legacy15PassManagerBaseERPNS_9MCContextERNS_17raw_pwrite_streamEb
   fun:_ZN4llvm5MCJIT10emitObjectEPNS_6ModuleE
   fun:_ZN4llvm5MCJIT21generateCodeForModuleEPNS_6ModuleE
}
{
   <insert_a_suppression_name_here>
   Memcheck:Leak
   match-leak-kinds: reachable
   fun:malloc
   obj:/usr/lib/x86_64-linux-gnu/libLLVM-9.so.1
   fun:_ZN4llvm12PassRegistry12registerPassERKNS_8PassInfoEb
   obj:/usr/lib/x86_64-linux-gnu/libLLVM-9.so.1
   fun:__pthread_once_slow
   fun:_ZN4llvm33initializeProcessImplicitDefsPassERNS_12PassRegistryE
   fun:_ZN4llvm17initializeCodeGenERNS_12PassRegistryE
   fun:_ZN4llvm16TargetPassConfigC1ERNS_17LLVMTargetMachineERNS_6legacy15PassManagerBaseE
   fun:_ZN4llvm16X86TargetMachine16createPassConfigERNS_6legacy15PassManagerBaseE
   fun:_ZN4llvm17LLVMTargetMachine17addPassesToEmitMCERNS_6legacy15PassManagerBaseERPNS_9MCContextERNS_17raw_pwrite_streamEb
   fun:_ZN4llvm5MCJIT10emitObjectEPNS_6ModuleE
   fun:_ZN4llvm5MCJIT21generateCodeForModuleEPNS_6ModuleE
}
{
   <insert_a_suppression_name_here>
   Memcheck:Leak
   match-leak-kinds: reachable
   fun:malloc
   obj:/usr/lib/x86_64-linux-gnu/libLLVM-9.so.1
   fun:_ZN4llvm12PassRegistry12registerPassERKNS_8PassInfoEb
   obj:/usr/lib/x86_64-linux-gnu/libLLVM-9.so.1
   fun:__pthread_once_slow
   fun:_ZN4llvm39initializePhysicalRegisterUsageInfoPassERNS_12PassRegistryE
   obj:/usr/lib/x86_64-linux-gnu/libLLVM-9.so.1
   fun:__pthread_once_slow
   fun:_ZN4llvm35initializeRegUsageInfoCollectorPassERNS_12PassRegistryE
   fun:_ZN4llvm17initializeCodeGenERNS_12PassRegistryE
   fun:_ZN4llvm16TargetPassConfigC1ERNS_17LLVMTargetMachineERNS_6legacy15PassManagerBaseE
   fun:_ZN4llvm16X86TargetMachine16createPassConfigERNS_6legacy15PassManagerBaseE
}
{
   <insert_a_suppression_name_here>
   Memcheck:Leak
   match-leak-kinds: reachable
   fun:malloc
   obj:/usr/lib/x86_64-linux-gnu/libLLVM-9.so.1
   fun:_ZN4llvm12PassRegistry12registerPassERKNS_8PassInfoEb
   obj:/usr/lib/x86_64-linux-gnu/libLLVM-9.so.1
   fun:__pthread_once_slow
   fun:_ZN4llvm27initializeStackColoringPassERNS_12PassRegistryE
   fun:_ZN4llvm17initializeCodeGenERNS_12PassRegistryE
   fun:_ZN4llvm16TargetPassConfigC1ERNS_17LLVMTargetMachineERNS_6legacy15PassManagerBaseE
   fun:_ZN4llvm16X86TargetMachine16createPassConfigERNS_6legacy15PassManagerBaseE
   fun:_ZN4llvm17LLVMTargetMachine17addPassesToEmitMCERNS_6legacy15PassManagerBaseERPNS_9MCContextERNS_17raw_pwrite_streamEb
   fun:_ZN4llvm5MCJIT10emitObjectEPNS_6ModuleE
   fun:_ZN4llvm5MCJIT21generateCodeForModuleEPNS_6ModuleE
}
{
   <insert_a_suppression_name_here>
   Memcheck:Leak
   match-leak-kinds: reachable
   fun:malloc
   obj:/usr/lib/x86_64-linux-gnu/libLLVM-9.so.1
   fun:_ZN4llvm12PassRegistry12registerPassERKNS_8PassInfoEb
   obj:/usr/lib/x86_64-linux-gnu/libLLVM-9.so.1
   fun:__pthread_once_slow
   fun:_ZN4llvm25initializeLazyBFIPassPassERNS_12PassRegistryE
   obj:/usr/lib/x86_64-linux-gnu/libLLVM-9.so.1
   fun:__pthread_once_slow
   fun:_ZN4llvm50initializeOptimizationRemarkEmitterWrapperPassPassERNS_12PassRegistryE
   obj:/usr/lib/x86_64-linux-gnu/libLLVM-9.so.1
   fun:__pthread_once_slow
   fun:LLVMAddInstructionCombiningPass
}
{
   <insert_a_suppression_name_here>
   Memcheck:Leak
   match-leak-kinds: reachable
   fun:_Znwm
   obj:/usr/lib/x86_64-linux-gnu/libLLVM-9.so.1
   fun:_ZNK4llvm17ManagedStaticBase21RegisterManagedStaticEPFPvvEPFvS1_E
   fun:_ZN4llvm16JITEventListener29createGDBRegistrationListenerEv
   fun:_ZN4llvm5MCJITC1ESt10unique_ptrINS_6ModuleESt14default_deleteIS2_EES1_INS_13TargetMachineES3_IS6_EESt10shared_ptrINS_18MCJITMemoryManagerEES9_INS_23LegacyJITSymbolResolverEE
   fun:_ZN4llvm5MCJIT9createJITESt10unique_ptrINS_6ModuleESt14default_deleteIS2_EEPNSt7__cxx1112basic_stringIcSt11char_traitsIcESaIcEEESt10shared_ptrINS_18MCJITMemoryManagerEESD_INS_23LegacyJITSymbolResolverEES1_INS_13TargetMachineES3_ISI_EE
   fun:_ZN4llvm13EngineBuilder6createEPNS_13TargetMachineE
   obj:*
   obj:*
   obj:*
   obj:*
   obj:*
}
{
   <insert_a_suppression_name_here>
   Memcheck:Leak
   match-leak-kinds: reachable
   fun:malloc
   obj:/usr/lib/x86_64-linux-gnu/libLLVM-9.so.1
   fun:_ZN4llvm12PassRegistry12registerPassERKNS_8PassInfoEb
   obj:/usr/lib/x86_64-linux-gnu/libLLVM-9.so.1
   fun:__pthread_once_slow
   fun:_ZN4llvm29initializeLiveDebugValuesPassERNS_12PassRegistryE
   fun:_ZN4llvm17initializeCodeGenERNS_12PassRegistryE
   fun:_ZN4llvm16TargetPassConfigC1ERNS_17LLVMTargetMachineERNS_6legacy15PassManagerBaseE
   fun:_ZN4llvm16X86TargetMachine16createPassConfigERNS_6legacy15PassManagerBaseE
   fun:_ZN4llvm17LLVMTargetMachine17addPassesToEmitMCERNS_6legacy15PassManagerBaseERPNS_9MCContextERNS_17raw_pwrite_streamEb
   fun:_ZN4llvm5MCJIT10emitObjectEPNS_6ModuleE
   fun:_ZN4llvm5MCJIT21generateCodeForModuleEPNS_6ModuleE
}
{
   <insert_a_suppression_name_here>
   Memcheck:Leak
   match-leak-kinds: reachable
   fun:malloc
   obj:/usr/lib/x86_64-linux-gnu/libLLVM-9.so.1
   fun:_ZN4llvm12PassRegistry12registerPassERKNS_8PassInfoEb
   obj:/usr/lib/x86_64-linux-gnu/libLLVM-9.so.1
   fun:__pthread_once_slow
   fun:_ZN4llvm32initializeLocalStackSlotPassPassERNS_12PassRegistryE
   fun:_ZN4llvm17initializeCodeGenERNS_12PassRegistryE
   fun:_ZN4llvm16TargetPassConfigC1ERNS_17LLVMTargetMachineERNS_6legacy15PassManagerBaseE
   fun:_ZN4llvm16X86TargetMachine16createPassConfigERNS_6legacy15PassManagerBaseE
   fun:_ZN4llvm17LLVMTargetMachine17addPassesToEmitMCERNS_6legacy15PassManagerBaseERPNS_9MCContextERNS_17raw_pwrite_streamEb
   fun:_ZN4llvm5MCJIT10emitObjectEPNS_6ModuleE
   fun:_ZN4llvm5MCJIT21generateCodeForModuleEPNS_6ModuleE
}
{
   <insert_a_suppression_name_here>
   Memcheck:Leak
   match-leak-kinds: reachable
   fun:malloc
   obj:/usr/lib/x86_64-linux-gnu/libLLVM-9.so.1
   fun:_ZN4llvm12PassRegistry12registerPassERKNS_8PassInfoEb
   obj:/usr/lib/x86_64-linux-gnu/libLLVM-9.so.1
   fun:__pthread_once_slow
   fun:_ZN4llvm35initializeMachineBlockPlacementPassERNS_12PassRegistryE
   fun:_ZN4llvm17initializeCodeGenERNS_12PassRegistryE
   fun:_ZN4llvm16TargetPassConfigC1ERNS_17LLVMTargetMachineERNS_6legacy15PassManagerBaseE
   fun:_ZN4llvm16X86TargetMachine16createPassConfigERNS_6legacy15PassManagerBaseE
   fun:_ZN4llvm17LLVMTargetMachine17addPassesToEmitMCERNS_6legacy15PassManagerBaseERPNS_9MCContextERNS_17raw_pwrite_streamEb
   fun:_ZN4llvm5MCJIT10emitObjectEPNS_6ModuleE
   fun:_ZN4llvm5MCJIT21generateCodeForModuleEPNS_6ModuleE
}
{
   <insert_a_suppression_name_here>
   Memcheck:Leak
   match-leak-kinds: reachable
   fun:malloc
   obj:/usr/lib/x86_64-linux-gnu/libLLVM-9.so.1
   fun:_ZN4llvm12PassRegistry12registerPassERKNS_8PassInfoEb
   obj:/usr/lib/x86_64-linux-gnu/libLLVM-9.so.1
   fun:__pthread_once_slow
   fun:_ZN4llvm33initializeMachineVerifierPassPassERNS_12PassRegistryE
   fun:_ZN4llvm17initializeCodeGenERNS_12PassRegistryE
   fun:_ZN4llvm16TargetPassConfigC1ERNS_17LLVMTargetMachineERNS_6legacy15PassManagerBaseE
   fun:_ZN4llvm16X86TargetMachine16createPassConfigERNS_6legacy15PassManagerBaseE
   fun:_ZN4llvm17LLVMTargetMachine17addPassesToEmitMCERNS_6legacy15PassManagerBaseERPNS_9MCContextERNS_17raw_pwrite_streamEb
   fun:_ZN4llvm5MCJIT10emitObjectEPNS_6ModuleE
   fun:_ZN4llvm5MCJIT21generateCodeForModuleEPNS_6ModuleE
}
{
   <insert_a_suppression_name_here>
   Memcheck:Leak
   match-leak-kinds: reachable
   fun:malloc
   obj:/usr/lib/x86_64-linux-gnu/libLLVM-9.so.1
   fun:_ZN4llvm12PassRegistry12registerPassERKNS_8PassInfoEb
   obj:/usr/lib/x86_64-linux-gnu/libLLVM-9.so.1
   fun:__pthread_once_slow
   fun:_ZN4llvm28initializeStackProtectorPassERNS_12PassRegistryE
   fun:_ZN4llvm17initializeCodeGenERNS_12PassRegistryE
   fun:_ZN4llvm16TargetPassConfigC1ERNS_17LLVMTargetMachineERNS_6legacy15PassManagerBaseE
   fun:_ZN4llvm16X86TargetMachine16createPassConfigERNS_6legacy15PassManagerBaseE
   fun:_ZN4llvm17LLVMTargetMachine17addPassesToEmitMCERNS_6legacy15PassManagerBaseERPNS_9MCContextERNS_17raw_pwrite_streamEb
   fun:_ZN4llvm5MCJIT10emitObjectEPNS_6ModuleE
   fun:_ZN4llvm5MCJIT21generateCodeForModuleEPNS_6ModuleE
}
{
   <insert_a_suppression_name_here>
   Memcheck:Leak
   match-leak-kinds: reachable
   fun:malloc
   obj:/usr/lib/x86_64-linux-gnu/libLLVM-9.so.1
   fun:_ZN4llvm12PassRegistry12registerPassERKNS_8PassInfoEb
   obj:/usr/lib/x86_64-linux-gnu/libLLVM-9.so.1
   fun:__pthread_once_slow
   fun:_ZN4llvm27initializeTailDuplicatePassERNS_12PassRegistryE
   fun:_ZN4llvm17initializeCodeGenERNS_12PassRegistryE
   fun:_ZN4llvm16TargetPassConfigC1ERNS_17LLVMTargetMachineERNS_6legacy15PassManagerBaseE
   fun:_ZN4llvm16X86TargetMachine16createPassConfigERNS_6legacy15PassManagerBaseE
   fun:_ZN4llvm17LLVMTargetMachine17addPassesToEmitMCERNS_6legacy15PassManagerBaseERPNS_9MCContextERNS_17raw_pwrite_streamEb
   fun:_ZN4llvm5MCJIT10emitObjectEPNS_6ModuleE
   fun:_ZN4llvm5MCJIT21generateCodeForModuleEPNS_6ModuleE
}
{
   <insert_a_suppression_name_here>
   Memcheck:Leak
   match-leak-kinds: reachable
   fun:malloc
   obj:/usr/lib/x86_64-linux-gnu/libLLVM-9.so.1
   fun:_ZN4llvm12PassRegistry12registerPassERKNS_8PassInfoEb
   obj:/usr/lib/x86_64-linux-gnu/libLLVM-9.so.1
   fun:__pthread_once_slow
   fun:_ZN4llvm29initializeVirtRegRewriterPassERNS_12PassRegistryE
   fun:_ZN4llvm17initializeCodeGenERNS_12PassRegistryE
   fun:_ZN4llvm16TargetPassConfigC1ERNS_17LLVMTargetMachineERNS_6legacy15PassManagerBaseE
   fun:_ZN4llvm16X86TargetMachine16createPassConfigERNS_6legacy15PassManagerBaseE
   fun:_ZN4llvm17LLVMTargetMachine17addPassesToEmitMCERNS_6legacy15PassManagerBaseERPNS_9MCContextERNS_17raw_pwrite_streamEb
   fun:_ZN4llvm5MCJIT10emitObjectEPNS_6ModuleE
   fun:_ZN4llvm5MCJIT21generateCodeForModuleEPNS_6ModuleE
}
{
   <insert_a_suppression_name_here>
   Memcheck:Leak
   match-leak-kinds: reachable
   fun:malloc
   obj:/usr/lib/x86_64-linux-gnu/libLLVM-9.so.1
   fun:_ZN4llvm12PassRegistry12registerPassERKNS_8PassInfoEb
   obj:/usr/lib/x86_64-linux-gnu/libLLVM-9.so.1
   fun:__pthread_once_slow
   fun:_ZN4llvm24createRewriteSymbolsPassEv
   fun:_ZN4llvm16TargetPassConfig17addCodeGenPrepareEv
   fun:_ZN4llvm16TargetPassConfig13addISelPassesEv
   fun:_ZN4llvm17LLVMTargetMachine17addPassesToEmitMCERNS_6legacy15PassManagerBaseERPNS_9MCContextERNS_17raw_pwrite_streamEb
   fun:_ZN4llvm5MCJIT10emitObjectEPNS_6ModuleE
   fun:_ZN4llvm5MCJIT21generateCodeForModuleEPNS_6ModuleE
   fun:_ZN4llvm5MCJIT14finalizeObjectEv
}
{
   <insert_a_suppression_name_here>
   Memcheck:Leak
   match-leak-kinds: reachable
   fun:malloc
   obj:/usr/lib/x86_64-linux-gnu/libLLVM-9.so.1
   fun:_ZN4llvm12PassRegistry12registerPassERKNS_8PassInfoEb
   obj:/usr/lib/x86_64-linux-gnu/libLLVM-9.so.1
   fun:__pthread_once_slow
   fun:_ZN4llvm25initializeLazyBPIPassPassERNS_12PassRegistryE
   fun:_ZN4llvm25initializeLazyBFIPassPassERNS_12PassRegistryE
   obj:/usr/lib/x86_64-linux-gnu/libLLVM-9.so.1
   fun:__pthread_once_slow
   fun:_ZN4llvm50initializeOptimizationRemarkEmitterWrapperPassPassERNS_12PassRegistryE
   obj:/usr/lib/x86_64-linux-gnu/libLLVM-9.so.1
   fun:__pthread_once_slow
}
{
   <insert_a_suppression_name_here>
   Memcheck:Leak
   match-leak-kinds: reachable
   fun:malloc
   obj:/usr/lib/x86_64-linux-gnu/libLLVM-9.so.1
   fun:_ZN4llvm12PassRegistry12registerPassERKNS_8PassInfoEb
   obj:/usr/lib/x86_64-linux-gnu/libLLVM-9.so.1
   fun:__pthread_once_slow
   fun:_ZN4llvm29initializeMachineCombinerPassERNS_12PassRegistryE
   fun:_ZN4llvm17initializeCodeGenERNS_12PassRegistryE
   fun:_ZN4llvm16TargetPassConfigC1ERNS_17LLVMTargetMachineERNS_6legacy15PassManagerBaseE
   fun:_ZN4llvm16X86TargetMachine16createPassConfigERNS_6legacy15PassManagerBaseE
   fun:_ZN4llvm17LLVMTargetMachine17addPassesToEmitMCERNS_6legacy15PassManagerBaseERPNS_9MCContextERNS_17raw_pwrite_streamEb
   fun:_ZN4llvm5MCJIT10emitObjectEPNS_6ModuleE
   fun:_ZN4llvm5MCJIT21generateCodeForModuleEPNS_6ModuleE
}
{
   <insert_a_suppression_name_here>
   Memcheck:Leak
   match-leak-kinds: reachable
   fun:malloc
   obj:/usr/lib/x86_64-linux-gnu/libLLVM-9.so.1
   fun:_ZN4llvm12PassRegistry12registerPassERKNS_8PassInfoEb
   obj:/usr/lib/x86_64-linux-gnu/libLLVM-9.so.1
   fun:__pthread_once_slow
   fun:_ZN4llvm29initializeMachineOutlinerPassERNS_12PassRegistryE
   fun:_ZN4llvm17initializeCodeGenERNS_12PassRegistryE
   fun:_ZN4llvm16TargetPassConfigC1ERNS_17LLVMTargetMachineERNS_6legacy15PassManagerBaseE
   fun:_ZN4llvm16X86TargetMachine16createPassConfigERNS_6legacy15PassManagerBaseE
   fun:_ZN4llvm17LLVMTargetMachine17addPassesToEmitMCERNS_6legacy15PassManagerBaseERPNS_9MCContextERNS_17raw_pwrite_streamEb
   fun:_ZN4llvm5MCJIT10emitObjectEPNS_6ModuleE
   fun:_ZN4llvm5MCJIT21generateCodeForModuleEPNS_6ModuleE
}
{
   <insert_a_suppression_name_here>
   Memcheck:Leak
   match-leak-kinds: reachable
   fun:malloc
   obj:/usr/lib/x86_64-linux-gnu/libLLVM-9.so.1
   fun:_ZN4llvm12PassRegistry12registerPassERKNS_8PassInfoEb
   obj:/usr/lib/x86_64-linux-gnu/libLLVM-9.so.1
   fun:__pthread_once_slow
   obj:/usr/lib/x86_64-linux-gnu/libLLVM-9.so.1
   fun:_ZN4llvm20createBreakFalseDepsEv
   obj:/usr/lib/x86_64-linux-gnu/libLLVM-9.so.1
   fun:_ZN4llvm16TargetPassConfig16addMachinePassesEv
   fun:_ZN4llvm17LLVMTargetMachine17addPassesToEmitMCERNS_6legacy15PassManagerBaseERPNS_9MCContextERNS_17raw_pwrite_streamEb
   fun:_ZN4llvm5MCJIT10emitObjectEPNS_6ModuleE
   fun:_ZN4llvm5MCJIT21generateCodeForModuleEPNS_6ModuleE
}
{
   <insert_a_suppression_name_here>
   Memcheck:Leak
   match-leak-kinds: reachable
   fun:malloc
   obj:/usr/lib/x86_64-linux-gnu/libLLVM-9.so.1
   fun:_ZN4llvm12PassRegistry12registerPassERKNS_8PassInfoEb
   obj:/usr/lib/x86_64-linux-gnu/libLLVM-9.so.1
   fun:__pthread_once_slow
   fun:_ZN4llvm17MachineModuleInfoC1EPKNS_17LLVMTargetMachineE
   fun:_ZN4llvm17LLVMTargetMachine17addPassesToEmitMCERNS_6legacy15PassManagerBaseERPNS_9MCContextERNS_17raw_pwrite_streamEb
   fun:_ZN4llvm5MCJIT10emitObjectEPNS_6ModuleE
   fun:_ZN4llvm5MCJIT21generateCodeForModuleEPNS_6ModuleE
   fun:_ZN4llvm5MCJIT14finalizeObjectEv
   fun:LLVMGetPointerToGlobal
   obj:*
}
{
   <insert_a_suppression_name_here>
   Memcheck:Leak
   match-leak-kinds: reachable
   fun:malloc
   obj:/usr/lib/x86_64-linux-gnu/libLLVM-9.so.1
   fun:_ZN4llvm12PassRegistry12registerPassERKNS_8PassInfoEb
   obj:/usr/lib/x86_64-linux-gnu/libLLVM-9.so.1
   fun:__pthread_once_slow
   fun:_ZN4llvm30initializeBranchRelaxationPassERNS_12PassRegistryE
   fun:_ZN4llvm17initializeCodeGenERNS_12PassRegistryE
   fun:_ZN4llvm16TargetPassConfigC1ERNS_17LLVMTargetMachineERNS_6legacy15PassManagerBaseE
   fun:_ZN4llvm16X86TargetMachine16createPassConfigERNS_6legacy15PassManagerBaseE
   fun:_ZN4llvm17LLVMTargetMachine17addPassesToEmitMCERNS_6legacy15PassManagerBaseERPNS_9MCContextERNS_17raw_pwrite_streamEb
   fun:_ZN4llvm5MCJIT10emitObjectEPNS_6ModuleE
   fun:_ZN4llvm5MCJIT21generateCodeForModuleEPNS_6ModuleE
}
{
   <insert_a_suppression_name_here>
   Memcheck:Leak
   match-leak-kinds: reachable
   fun:malloc
   obj:/usr/lib/x86_64-linux-gnu/libLLVM-9.so.1
   fun:_ZN4llvm12PassRegistry12registerPassERKNS_8PassInfoEb
   obj:/usr/lib/x86_64-linux-gnu/libLLVM-9.so.1
   fun:__pthread_once_slow
   fun:_ZN4llvm29initializeDetectDeadLanesPassERNS_12PassRegistryE
   fun:_ZN4llvm17initializeCodeGenERNS_12PassRegistryE
   fun:_ZN4llvm16TargetPassConfigC1ERNS_17LLVMTargetMachineERNS_6legacy15PassManagerBaseE
   fun:_ZN4llvm16X86TargetMachine16createPassConfigERNS_6legacy15PassManagerBaseE
   fun:_ZN4llvm17LLVMTargetMachine17addPassesToEmitMCERNS_6legacy15PassManagerBaseERPNS_9MCContextERNS_17raw_pwrite_streamEb
   fun:_ZN4llvm5MCJIT10emitObjectEPNS_6ModuleE
   fun:_ZN4llvm5MCJIT21generateCodeForModuleEPNS_6ModuleE
}
{
   <insert_a_suppression_name_here>
   Memcheck:Leak
   match-leak-kinds: reachable
   fun:malloc
   obj:/usr/lib/x86_64-linux-gnu/libLLVM-9.so.1
   fun:_ZN4llvm12PassRegistry12registerPassERKNS_8PassInfoEb
   obj:/usr/lib/x86_64-linux-gnu/libLLVM-9.so.1
   fun:__pthread_once_slow
   fun:_ZN4llvm30initializeEarlyMachineLICMPassERNS_12PassRegistryE
   fun:_ZN4llvm17initializeCodeGenERNS_12PassRegistryE
   fun:_ZN4llvm16TargetPassConfigC1ERNS_17LLVMTargetMachineERNS_6legacy15PassManagerBaseE
   fun:_ZN4llvm16X86TargetMachine16createPassConfigERNS_6legacy15PassManagerBaseE
   fun:_ZN4llvm17LLVMTargetMachine17addPassesToEmitMCERNS_6legacy15PassManagerBaseERPNS_9MCContextERNS_17raw_pwrite_streamEb
   fun:_ZN4llvm5MCJIT10emitObjectEPNS_6ModuleE
   fun:_ZN4llvm5MCJIT21generateCodeForModuleEPNS_6ModuleE
}
{
   <insert_a_suppression_name_here>
   Memcheck:Leak
   match-leak-kinds: reachable
   fun:malloc
   obj:/usr/lib/x86_64-linux-gnu/libLLVM-9.so.1
   fun:_ZN4llvm12PassRegistry12registerPassERKNS_8PassInfoEb
   obj:/usr/lib/x86_64-linux-gnu/libLLVM-9.so.1
   fun:__pthread_once_slow
   fun:_ZN4llvm34initializeIndirectBrExpandPassPassERNS_12PassRegistryE
   fun:_ZN4llvm17initializeCodeGenERNS_12PassRegistryE
   fun:_ZN4llvm16TargetPassConfigC1ERNS_17LLVMTargetMachineERNS_6legacy15PassManagerBaseE
   fun:_ZN4llvm16X86TargetMachine16createPassConfigERNS_6legacy15PassManagerBaseE
   fun:_ZN4llvm17LLVMTargetMachine17addPassesToEmitMCERNS_6legacy15PassManagerBaseERPNS_9MCContextERNS_17raw_pwrite_streamEb
   fun:_ZN4llvm5MCJIT10emitObjectEPNS_6ModuleE
   fun:_ZN4llvm5MCJIT21generateCodeForModuleEPNS_6ModuleE
}
{
   <insert_a_suppression_name_here>
   Memcheck:Leak
   match-leak-kinds: reachable
   fun:malloc
   obj:/usr/lib/x86_64-linux-gnu/libLLVM-9.so.1
   fun:_ZN4llvm12PassRegistry12registerPassERKNS_8PassInfoEb
   obj:/usr/lib/x86_64-linux-gnu/libLLVM-9.so.1
   fun:__pthread_once_slow
   fun:_ZN4llvm30initializeMIRCanonicalizerPassERNS_12PassRegistryE
   fun:_ZN4llvm17initializeCodeGenERNS_12PassRegistryE
   fun:_ZN4llvm16TargetPassConfigC1ERNS_17LLVMTargetMachineERNS_6legacy15PassManagerBaseE
   fun:_ZN4llvm16X86TargetMachine16createPassConfigERNS_6legacy15PassManagerBaseE
   fun:_ZN4llvm17LLVMTargetMachine17addPassesToEmitMCERNS_6legacy15PassManagerBaseERPNS_9MCContextERNS_17raw_pwrite_streamEb
   fun:_ZN4llvm5MCJIT10emitObjectEPNS_6ModuleE
   fun:_ZN4llvm5MCJIT21generateCodeForModuleEPNS_6ModuleE
}
{
   <insert_a_suppression_name_here>
   Memcheck:Leak
   match-leak-kinds: reachable
   fun:malloc
   obj:/usr/lib/x86_64-linux-gnu/libLLVM-9.so.1
   fun:_ZN4llvm12PassRegistry12registerPassERKNS_8PassInfoEb
   obj:/usr/lib/x86_64-linux-gnu/libLLVM-9.so.1
   fun:__pthread_once_slow
   fun:_ZN4llvm30initializeMachineSchedulerPassERNS_12PassRegistryE
   fun:_ZN4llvm17initializeCodeGenERNS_12PassRegistryE
   fun:_ZN4llvm16TargetPassConfigC1ERNS_17LLVMTargetMachineERNS_6legacy15PassManagerBaseE
   fun:_ZN4llvm16X86TargetMachine16createPassConfigERNS_6legacy15PassManagerBaseE
   fun:_ZN4llvm17LLVMTargetMachine17addPassesToEmitMCERNS_6legacy15PassManagerBaseERPNS_9MCContextERNS_17raw_pwrite_streamEb
   fun:_ZN4llvm5MCJIT10emitObjectEPNS_6ModuleE
   fun:_ZN4llvm5MCJIT21generateCodeForModuleEPNS_6ModuleE
}
{
   <insert_a_suppression_name_here>
   Memcheck:Leak
   match-leak-kinds: reachable
   fun:malloc
   obj:/usr/lib/x86_64-linux-gnu/libLLVM-9.so.1
   fun:_ZN4llvm12PassRegistry12registerPassERKNS_8PassInfoEb
   obj:/usr/lib/x86_64-linux-gnu/libLLVM-9.so.1
   fun:__pthread_once_slow
   fun:_ZN4llvm30initializeStackMapLivenessPassERNS_12PassRegistryE
   fun:_ZN4llvm17initializeCodeGenERNS_12PassRegistryE
   fun:_ZN4llvm16TargetPassConfigC1ERNS_17LLVMTargetMachineERNS_6legacy15PassManagerBaseE
   fun:_ZN4llvm16X86TargetMachine16createPassConfigERNS_6legacy15PassManagerBaseE
   fun:_ZN4llvm17LLVMTargetMachine17addPassesToEmitMCERNS_6legacy15PassManagerBaseERPNS_9MCContextERNS_17raw_pwrite_streamEb
   fun:_ZN4llvm5MCJIT10emitObjectEPNS_6ModuleE
   fun:_ZN4llvm5MCJIT21generateCodeForModuleEPNS_6ModuleE
}
{
   <insert_a_suppression_name_here>
   Memcheck:Leak
   match-leak-kinds: reachable
   fun:malloc
   obj:/usr/lib/x86_64-linux-gnu/libLLVM-9.so.1
   fun:_ZN4llvm12PassRegistry12registerPassERKNS_8PassInfoEb
   obj:/usr/lib/x86_64-linux-gnu/libLLVM-9.so.1
   fun:__pthread_once_slow
   fun:_ZN4llvm34initializeUnpackMachineBundlesPassERNS_12PassRegistryE
   fun:_ZN4llvm17initializeCodeGenERNS_12PassRegistryE
   fun:_ZN4llvm16TargetPassConfigC1ERNS_17LLVMTargetMachineERNS_6legacy15PassManagerBaseE
   fun:_ZN4llvm16X86TargetMachine16createPassConfigERNS_6legacy15PassManagerBaseE
   fun:_ZN4llvm17LLVMTargetMachine17addPassesToEmitMCERNS_6legacy15PassManagerBaseERPNS_9MCContextERNS_17raw_pwrite_streamEb
   fun:_ZN4llvm5MCJIT10emitObjectEPNS_6ModuleE
   fun:_ZN4llvm5MCJIT21generateCodeForModuleEPNS_6ModuleE
}
{
   <insert_a_suppression_name_here>
   Memcheck:Leak
   match-leak-kinds: reachable
   fun:malloc
   obj:/usr/lib/x86_64-linux-gnu/libLLVM-9.so.1
   fun:_ZN4llvm12PassRegistry12registerPassERKNS_8PassInfoEb
   obj:/usr/lib/x86_64-linux-gnu/libLLVM-9.so.1
   fun:__pthread_once_slow
   fun:_ZN4llvm26createExpandReductionsPassEv
   fun:_ZN4llvm16TargetPassConfig11addIRPassesEv
   obj:/usr/lib/x86_64-linux-gnu/libLLVM-9.so.1
   fun:_ZN4llvm16TargetPassConfig13addISelPassesEv
   fun:_ZN4llvm17LLVMTargetMachine17addPassesToEmitMCERNS_6legacy15PassManagerBaseERPNS_9MCContextERNS_17raw_pwrite_streamEb
   fun:_ZN4llvm5MCJIT10emitObjectEPNS_6ModuleE
   fun:_ZN4llvm5MCJIT21generateCodeForModuleEPNS_6ModuleE
}
{
   <insert_a_suppression_name_here>
   Memcheck:Leak
   match-leak-kinds: reachable
   fun:malloc
   obj:/usr/lib/x86_64-linux-gnu/libLLVM-9.so.1
   fun:_ZN4llvm12PassRegistry12registerPassERKNS_8PassInfoEb
   obj:/usr/lib/x86_64-linux-gnu/libLLVM-9.so.1
   fun:__pthread_once_slow
   fun:_ZN4llvm50initializeOptimizationRemarkEmitterWrapperPassPassERNS_12PassRegistryE
   obj:/usr/lib/x86_64-linux-gnu/libLLVM-9.so.1
   fun:__pthread_once_slow
   fun:LLVMAddInstructionCombiningPass
   obj:*
   obj:*
   obj:*
}
{
   <insert_a_suppression_name_here>
   Memcheck:Leak
   match-leak-kinds: reachable
   fun:malloc
   obj:/usr/lib/x86_64-linux-gnu/libLLVM-9.so.1
   fun:_ZN4llvm12PassRegistry12registerPassERKNS_8PassInfoEb
   obj:/usr/lib/x86_64-linux-gnu/libLLVM-9.so.1
   fun:__pthread_once_slow
   fun:_ZN4llvm30initializeCFIInstrInserterPassERNS_12PassRegistryE
   fun:_ZN4llvm17initializeCodeGenERNS_12PassRegistryE
   fun:_ZN4llvm16TargetPassConfigC1ERNS_17LLVMTargetMachineERNS_6legacy15PassManagerBaseE
   fun:_ZN4llvm16X86TargetMachine16createPassConfigERNS_6legacy15PassManagerBaseE
   fun:_ZN4llvm17LLVMTargetMachine17addPassesToEmitMCERNS_6legacy15PassManagerBaseERPNS_9MCContextERNS_17raw_pwrite_streamEb
   fun:_ZN4llvm5MCJIT10emitObjectEPNS_6ModuleE
   fun:_ZN4llvm5MCJIT21generateCodeForModuleEPNS_6ModuleE
}
{
   <insert_a_suppression_name_here>
   Memcheck:Leak
   match-leak-kinds: reachable
   fun:malloc
   obj:/usr/lib/x86_64-linux-gnu/libLLVM-9.so.1
   fun:_ZN4llvm12PassRegistry12registerPassERKNS_8PassInfoEb
   obj:/usr/lib/x86_64-linux-gnu/libLLVM-9.so.1
   fun:__pthread_once_slow
   fun:_ZN4llvm26initializeGCModuleInfoPassERNS_12PassRegistryE
   fun:_ZN4llvm17initializeCodeGenERNS_12PassRegistryE
   fun:_ZN4llvm16TargetPassConfigC1ERNS_17LLVMTargetMachineERNS_6legacy15PassManagerBaseE
   fun:_ZN4llvm16X86TargetMachine16createPassConfigERNS_6legacy15PassManagerBaseE
   fun:_ZN4llvm17LLVMTargetMachine17addPassesToEmitMCERNS_6legacy15PassManagerBaseERPNS_9MCContextERNS_17raw_pwrite_streamEb
   fun:_ZN4llvm5MCJIT10emitObjectEPNS_6ModuleE
   fun:_ZN4llvm5MCJIT21generateCodeForModuleEPNS_6ModuleE
}
{
   <insert_a_suppression_name_here>
   Memcheck:Leak
   match-leak-kinds: reachable
   fun:malloc
   obj:/usr/lib/x86_64-linux-gnu/libLLVM-9.so.1
   fun:_ZN4llvm12PassRegistry12registerPassERKNS_8PassInfoEb
   obj:/usr/lib/x86_64-linux-gnu/libLLVM-9.so.1
   fun:__pthread_once_slow
   fun:_ZN4llvm31initializeInterleavedAccessPassERNS_12PassRegistryE
   fun:_ZN4llvm17initializeCodeGenERNS_12PassRegistryE
   fun:_ZN4llvm16TargetPassConfigC1ERNS_17LLVMTargetMachineERNS_6legacy15PassManagerBaseE
   fun:_ZN4llvm16X86TargetMachine16createPassConfigERNS_6legacy15PassManagerBaseE
   fun:_ZN4llvm17LLVMTargetMachine17addPassesToEmitMCERNS_6legacy15PassManagerBaseERPNS_9MCContextERNS_17raw_pwrite_streamEb
   fun:_ZN4llvm5MCJIT10emitObjectEPNS_6ModuleE
   fun:_ZN4llvm5MCJIT21generateCodeForModuleEPNS_6ModuleE
}
{
   <insert_a_suppression_name_here>
   Memcheck:Leak
   match-leak-kinds: reachable
   fun:malloc
   obj:/usr/lib/x86_64-linux-gnu/libLLVM-9.so.1
   fun:_ZN4llvm12PassRegistry12registerPassERKNS_8PassInfoEb
   obj:/usr/lib/x86_64-linux-gnu/libLLVM-9.so.1
   fun:__pthread_once_slow
   fun:_ZN4llvm38initializeMachinePostDominatorTreePassERNS_12PassRegistryE
   obj:/usr/lib/x86_64-linux-gnu/libLLVM-9.so.1
   fun:__pthread_once_slow
   fun:_ZN4llvm35initializeMachineBlockPlacementPassERNS_12PassRegistryE
   fun:_ZN4llvm17initializeCodeGenERNS_12PassRegistryE
   fun:_ZN4llvm16TargetPassConfigC1ERNS_17LLVMTargetMachineERNS_6legacy15PassManagerBaseE
   fun:_ZN4llvm16X86TargetMachine16createPassConfigERNS_6legacy15PassManagerBaseE
}
{
   <insert_a_suppression_name_here>
   Memcheck:Leak
   match-leak-kinds: reachable
   fun:malloc
   obj:/usr/lib/x86_64-linux-gnu/libLLVM-9.so.1
   fun:_ZN4llvm12PassRegistry12registerPassERKNS_8PassInfoEb
   obj:/usr/lib/x86_64-linux-gnu/libLLVM-9.so.1
   fun:__pthread_once_slow
   fun:_ZN4llvm31initializePatchableFunctionPassERNS_12PassRegistryE
   fun:_ZN4llvm17initializeCodeGenERNS_12PassRegistryE
   fun:_ZN4llvm16TargetPassConfigC1ERNS_17LLVMTargetMachineERNS_6legacy15PassManagerBaseE
   fun:_ZN4llvm16X86TargetMachine16createPassConfigERNS_6legacy15PassManagerBaseE
   fun:_ZN4llvm17LLVMTargetMachine17addPassesToEmitMCERNS_6legacy15PassManagerBaseERPNS_9MCContextERNS_17raw_pwrite_streamEb
   fun:_ZN4llvm5MCJIT10emitObjectEPNS_6ModuleE
   fun:_ZN4llvm5MCJIT21generateCodeForModuleEPNS_6ModuleE
}
{
   <insert_a_suppression_name_here>
   Memcheck:Leak
   match-leak-kinds: reachable
   fun:malloc
   obj:/usr/lib/x86_64-linux-gnu/libLLVM-9.so.1
   fun:_ZN4llvm12PassRegistry12registerPassERKNS_8PassInfoEb
   obj:/usr/lib/x86_64-linux-gnu/libLLVM-9.so.1
   fun:__pthread_once_slow
   fun:_ZN4llvm36initializePostRAHazardRecognizerPassERNS_12PassRegistryE
   fun:_ZN4llvm17initializeCodeGenERNS_12PassRegistryE
   fun:_ZN4llvm16TargetPassConfigC1ERNS_17LLVMTargetMachineERNS_6legacy15PassManagerBaseE
   fun:_ZN4llvm16X86TargetMachine16createPassConfigERNS_6legacy15PassManagerBaseE
   fun:_ZN4llvm17LLVMTargetMachine17addPassesToEmitMCERNS_6legacy15PassManagerBaseERPNS_9MCContextERNS_17raw_pwrite_streamEb
   fun:_ZN4llvm5MCJIT10emitObjectEPNS_6ModuleE
   fun:_ZN4llvm5MCJIT21generateCodeForModuleEPNS_6ModuleE
}
{
   <insert_a_suppression_name_here>
   Memcheck:Leak
   match-leak-kinds: reachable
   fun:malloc
   obj:/usr/lib/x86_64-linux-gnu/libLLVM-9.so.1
   fun:_ZN4llvm12PassRegistry12registerPassERKNS_8PassInfoEb
   obj:/usr/lib/x86_64-linux-gnu/libLLVM-9.so.1
   fun:__pthread_once_slow
   fun:_ZN4llvm40initializeDeadMachineInstructionElimPassERNS_12PassRegistryE
   fun:_ZN4llvm17initializeCodeGenERNS_12PassRegistryE
   fun:_ZN4llvm16TargetPassConfigC1ERNS_17LLVMTargetMachineERNS_6legacy15PassManagerBaseE
   fun:_ZN4llvm16X86TargetMachine16createPassConfigERNS_6legacy15PassManagerBaseE
   fun:_ZN4llvm17LLVMTargetMachine17addPassesToEmitMCERNS_6legacy15PassManagerBaseERPNS_9MCContextERNS_17raw_pwrite_streamEb
   fun:_ZN4llvm5MCJIT10emitObjectEPNS_6ModuleE
   fun:_ZN4llvm5MCJIT21generateCodeForModuleEPNS_6ModuleE
}
{
   <insert_a_suppression_name_here>
   Memcheck:Leak
   match-leak-kinds: reachable
   fun:malloc
   obj:/usr/lib/x86_64-linux-gnu/libLLVM-9.so.1
   fun:_ZN4llvm12PassRegistry12registerPassERKNS_8PassInfoEb
   obj:/usr/lib/x86_64-linux-gnu/libLLVM-9.so.1
   fun:__pthread_once_slow
   fun:_ZN4llvm36initializeFinalizeMachineBundlesPassERNS_12PassRegistryE
   fun:_ZN4llvm17initializeCodeGenERNS_12PassRegistryE
   fun:_ZN4llvm16TargetPassConfigC1ERNS_17LLVMTargetMachineERNS_6legacy15PassManagerBaseE
   fun:_ZN4llvm16X86TargetMachine16createPassConfigERNS_6legacy15PassManagerBaseE
   fun:_ZN4llvm17LLVMTargetMachine17addPassesToEmitMCERNS_6legacy15PassManagerBaseERPNS_9MCContextERNS_17raw_pwrite_streamEb
   fun:_ZN4llvm5MCJIT10emitObjectEPNS_6ModuleE
   fun:_ZN4llvm5MCJIT21generateCodeForModuleEPNS_6ModuleE
}
{
   <insert_a_suppression_name_here>
   Memcheck:Leak
   match-leak-kinds: reachable
   fun:malloc
   obj:/usr/lib/x86_64-linux-gnu/libLLVM-9.so.1
   fun:_ZN4llvm12PassRegistry12registerPassERKNS_8PassInfoEb
   obj:/usr/lib/x86_64-linux-gnu/libLLVM-9.so.1
   fun:__pthread_once_slow
   fun:_ZN4llvm38initializeMachineDominanceFrontierPassERNS_12PassRegistryE
   obj:/usr/lib/x86_64-linux-gnu/libLLVM-9.so.1
   fun:__pthread_once_slow
   fun:_ZN4llvm35initializeMachineRegionInfoPassPassERNS_12PassRegistryE
   fun:_ZN4llvm17initializeCodeGenERNS_12PassRegistryE
   fun:_ZN4llvm16TargetPassConfigC1ERNS_17LLVMTargetMachineERNS_6legacy15PassManagerBaseE
   fun:_ZN4llvm16X86TargetMachine16createPassConfigERNS_6legacy15PassManagerBaseE
}
{
   <insert_a_suppression_name_here>
   Memcheck:Leak
   match-leak-kinds: reachable
   fun:malloc
   obj:/usr/lib/x86_64-linux-gnu/libLLVM-9.so.1
   fun:_ZN4llvm12PassRegistry12registerPassERKNS_8PassInfoEb
   obj:/usr/lib/x86_64-linux-gnu/libLLVM-9.so.1
   fun:__pthread_once_slow
   fun:_ZN4llvm35initializeMachineRegionInfoPassPassERNS_12PassRegistryE
   fun:_ZN4llvm17initializeCodeGenERNS_12PassRegistryE
   fun:_ZN4llvm16TargetPassConfigC1ERNS_17LLVMTargetMachineERNS_6legacy15PassManagerBaseE
   fun:_ZN4llvm16X86TargetMachine16createPassConfigERNS_6legacy15PassManagerBaseE
   fun:_ZN4llvm17LLVMTargetMachine17addPassesToEmitMCERNS_6legacy15PassManagerBaseERPNS_9MCContextERNS_17raw_pwrite_streamEb
   fun:_ZN4llvm5MCJIT10emitObjectEPNS_6ModuleE
   fun:_ZN4llvm5MCJIT21generateCodeForModuleEPNS_6ModuleE
}
{
   <insert_a_suppression_name_here>
   Memcheck:Leak
   match-leak-kinds: reachable
   fun:malloc
   obj:/usr/lib/x86_64-linux-gnu/libLLVM-9.so.1
   fun:_ZN4llvm12PassRegistry12registerPassERKNS_8PassInfoEb
   obj:/usr/lib/x86_64-linux-gnu/libLLVM-9.so.1
   fun:__pthread_once_slow
   fun:_ZN4llvm34initializePostRAMachineSinkingPassERNS_12PassRegistryE
   fun:_ZN4llvm17initializeCodeGenERNS_12PassRegistryE
   fun:_ZN4llvm16TargetPassConfigC1ERNS_17LLVMTargetMachineERNS_6legacy15PassManagerBaseE
   fun:_ZN4llvm16X86TargetMachine16createPassConfigERNS_6legacy15PassManagerBaseE
   fun:_ZN4llvm17LLVMTargetMachine17addPassesToEmitMCERNS_6legacy15PassManagerBaseERPNS_9MCContextERNS_17raw_pwrite_streamEb
   fun:_ZN4llvm5MCJIT10emitObjectEPNS_6ModuleE
   fun:_ZN4llvm5MCJIT21generateCodeForModuleEPNS_6ModuleE
}
{
   <insert_a_suppression_name_here>
   Memcheck:Leak
   match-leak-kinds: reachable
   fun:malloc
   obj:/usr/lib/x86_64-linux-gnu/libLLVM-9.so.1
   fun:_ZN4llvm12PassRegistry12registerPassERKNS_8PassInfoEb
   obj:/usr/lib/x86_64-linux-gnu/libLLVM-9.so.1
   fun:__pthread_once_slow
   fun:_ZN4llvm31initializeStackSlotColoringPassERNS_12PassRegistryE
   fun:_ZN4llvm17initializeCodeGenERNS_12PassRegistryE
   fun:_ZN4llvm16TargetPassConfigC1ERNS_17LLVMTargetMachineERNS_6legacy15PassManagerBaseE
   fun:_ZN4llvm16X86TargetMachine16createPassConfigERNS_6legacy15PassManagerBaseE
   fun:_ZN4llvm17LLVMTargetMachine17addPassesToEmitMCERNS_6legacy15PassManagerBaseERPNS_9MCContextERNS_17raw_pwrite_streamEb
   fun:_ZN4llvm5MCJIT10emitObjectEPNS_6ModuleE
   fun:_ZN4llvm5MCJIT21generateCodeForModuleEPNS_6ModuleE
}
{
   <insert_a_suppression_name_here>
   Memcheck:Leak
   match-leak-kinds: reachable
   fun:malloc
   obj:/usr/lib/x86_64-linux-gnu/libLLVM-9.so.1
   fun:_ZN4llvm12PassRegistry12registerPassERKNS_8PassInfoEb
   obj:/usr/lib/x86_64-linux-gnu/libLLVM-9.so.1
   fun:__pthread_once_slow
   fun:_ZN4llvm43initializeProfileSummaryInfoWrapperPassPassERNS_12PassRegistryE
   obj:/usr/lib/x86_64-linux-gnu/libLLVM-9.so.1
   fun:__pthread_once_slow
   fun:LLVMAddInstructionCombiningPass
   obj:*
   obj:*
   obj:*
}
{
   <insert_a_suppression_name_here>
   Memcheck:Leak
   match-leak-kinds: reachable
   fun:malloc
   obj:/usr/lib/x86_64-linux-gnu/libLLVM-9.so.1
   fun:_ZN4llvm12PassRegistry12registerPassERKNS_8PassInfoEb
   obj:/usr/lib/x86_64-linux-gnu/libLLVM-9.so.1
   fun:__pthread_once_slow
   fun:_ZN4llvm32initializeImplicitNullChecksPassERNS_12PassRegistryE
   fun:_ZN4llvm17initializeCodeGenERNS_12PassRegistryE
   fun:_ZN4llvm16TargetPassConfigC1ERNS_17LLVMTargetMachineERNS_6legacy15PassManagerBaseE
   fun:_ZN4llvm16X86TargetMachine16createPassConfigERNS_6legacy15PassManagerBaseE
   fun:_ZN4llvm17LLVMTargetMachine17addPassesToEmitMCERNS_6legacy15PassManagerBaseERPNS_9MCContextERNS_17raw_pwrite_streamEb
   fun:_ZN4llvm5MCJIT10emitObjectEPNS_6ModuleE
   fun:_ZN4llvm5MCJIT21generateCodeForModuleEPNS_6ModuleE
}
{
   <insert_a_suppression_name_here>
   Memcheck:Leak
   match-leak-kinds: reachable
   fun:malloc
   obj:/usr/lib/x86_64-linux-gnu/libLLVM-9.so.1
   fun:_ZN4llvm12PassRegistry12registerPassERKNS_8PassInfoEb
   obj:/usr/lib/x86_64-linux-gnu/libLLVM-9.so.1
   fun:__pthread_once_slow
   fun:_ZN4llvm40initializeMachineFunctionPrinterPassPassERNS_12PassRegistryE
   fun:_ZN4llvm17initializeCodeGenERNS_12PassRegistryE
   fun:_ZN4llvm16TargetPassConfigC1ERNS_17LLVMTargetMachineERNS_6legacy15PassManagerBaseE
   fun:_ZN4llvm16X86TargetMachine16createPassConfigERNS_6legacy15PassManagerBaseE
   fun:_ZN4llvm17LLVMTargetMachine17addPassesToEmitMCERNS_6legacy15PassManagerBaseERPNS_9MCContextERNS_17raw_pwrite_streamEb
   fun:_ZN4llvm5MCJIT10emitObjectEPNS_6ModuleE
   fun:_ZN4llvm5MCJIT21generateCodeForModuleEPNS_6ModuleE
}
{
   <insert_a_suppression_name_here>
   Memcheck:Leak
   match-leak-kinds: reachable
   fun:malloc
   obj:/usr/lib/x86_64-linux-gnu/libLLVM-9.so.1
   fun:_ZN4llvm12PassRegistry12registerPassERKNS_8PassInfoEb
   obj:/usr/lib/x86_64-linux-gnu/libLLVM-9.so.1
   fun:__pthread_once_slow
   fun:_ZN4llvm28initializePHIEliminationPassERNS_12PassRegistryE
   fun:_ZN4llvm17initializeCodeGenERNS_12PassRegistryE
   fun:_ZN4llvm16TargetPassConfigC1ERNS_17LLVMTargetMachineERNS_6legacy15PassManagerBaseE
   fun:_ZN4llvm16X86TargetMachine16createPassConfigERNS_6legacy15PassManagerBaseE
   fun:_ZN4llvm17LLVMTargetMachine17addPassesToEmitMCERNS_6legacy15PassManagerBaseERPNS_9MCContextERNS_17raw_pwrite_streamEb
   fun:_ZN4llvm5MCJIT10emitObjectEPNS_6ModuleE
   fun:_ZN4llvm5MCJIT21generateCodeForModuleEPNS_6ModuleE
}
{
   <insert_a_suppression_name_here>
   Memcheck:Leak
   match-leak-kinds: reachable
   fun:malloc
   obj:/usr/lib/x86_64-linux-gnu/libLLVM-9.so.1
   fun:_ZN4llvm12PassRegistry12registerPassERKNS_8PassInfoEb
   obj:/usr/lib/x86_64-linux-gnu/libLLVM-9.so.1
   fun:__pthread_once_slow
   fun:_ZN4llvm28initializeSpillPlacementPassERNS_12PassRegistryE
   obj:/usr/lib/x86_64-linux-gnu/libLLVM-9.so.1
   fun:__pthread_once_slow
   fun:_ZN4llvm22initializeRAGreedyPassERNS_12PassRegistryE
   fun:_ZN4llvm17initializeCodeGenERNS_12PassRegistryE
   fun:_ZN4llvm16TargetPassConfigC1ERNS_17LLVMTargetMachineERNS_6legacy15PassManagerBaseE
   fun:_ZN4llvm16X86TargetMachine16createPassConfigERNS_6legacy15PassManagerBaseE
}
{
   <insert_a_suppression_name_here>
   Memcheck:Leak
   match-leak-kinds: reachable
   fun:malloc
   obj:/usr/lib/x86_64-linux-gnu/libLLVM-9.so.1
   fun:_ZN4llvm12PassRegistry12registerPassERKNS_8PassInfoEb
   obj:/usr/lib/x86_64-linux-gnu/libLLVM-9.so.1
   fun:__pthread_once_slow
   fun:_ZN4llvm44initializeUnreachableBlockElimLegacyPassPassERNS_12PassRegistryE
   fun:_ZN4llvm17initializeCodeGenERNS_12PassRegistryE
   fun:_ZN4llvm16TargetPassConfigC1ERNS_17LLVMTargetMachineERNS_6legacy15PassManagerBaseE
   fun:_ZN4llvm16X86TargetMachine16createPassConfigERNS_6legacy15PassManagerBaseE
   fun:_ZN4llvm17LLVMTargetMachine17addPassesToEmitMCERNS_6legacy15PassManagerBaseERPNS_9MCContextERNS_17raw_pwrite_streamEb
   fun:_ZN4llvm5MCJIT10emitObjectEPNS_6ModuleE
   fun:_ZN4llvm5MCJIT21generateCodeForModuleEPNS_6ModuleE
}
{
   <insert_a_suppression_name_here>
   Memcheck:Leak
   match-leak-kinds: reachable
   fun:malloc
   obj:/usr/lib/x86_64-linux-gnu/libLLVM-9.so.1
   fun:_ZN4llvm12PassRegistry12registerPassERKNS_8PassInfoEb
   obj:/usr/lib/x86_64-linux-gnu/libLLVM-9.so.1
   fun:__pthread_once_slow
   fun:_ZN4llvm33initializeXRayInstrumentationPassERNS_12PassRegistryE
   fun:_ZN4llvm16TargetPassConfigC1ERNS_17LLVMTargetMachineERNS_6legacy15PassManagerBaseE
   fun:_ZN4llvm16X86TargetMachine16createPassConfigERNS_6legacy15PassManagerBaseE
   fun:_ZN4llvm17LLVMTargetMachine17addPassesToEmitMCERNS_6legacy15PassManagerBaseERPNS_9MCContextERNS_17raw_pwrite_streamEb
   fun:_ZN4llvm5MCJIT10emitObjectEPNS_6ModuleE
   fun:_ZN4llvm5MCJIT21generateCodeForModuleEPNS_6ModuleE
   fun:_ZN4llvm5MCJIT14finalizeObjectEv
}
{
   <insert_a_suppression_name_here>
   Memcheck:Leak
   match-leak-kinds: reachable
   fun:malloc
   obj:/usr/lib/x86_64-linux-gnu/libLLVM-9.so.1
   fun:_ZN4llvm12PassRegistry12registerPassERKNS_8PassInfoEb
   obj:/usr/lib/x86_64-linux-gnu/libLLVM-9.so.1
   fun:__pthread_once_slow
   fun:_ZN4llvm33initializeMachineTraceMetricsPassERNS_12PassRegistryE
   obj:/usr/lib/x86_64-linux-gnu/libLLVM-9.so.1
   fun:__pthread_once_slow
   fun:_ZN4llvm30initializeEarlyIfConverterPassERNS_12PassRegistryE
   fun:_ZN4llvm17initializeCodeGenERNS_12PassRegistryE
   fun:_ZN4llvm16TargetPassConfigC1ERNS_17LLVMTargetMachineERNS_6legacy15PassManagerBaseE
   fun:_ZN4llvm16X86TargetMachine16createPassConfigERNS_6legacy15PassManagerBaseE
}
{
   <insert_a_suppression_name_here>
   Memcheck:Leak
   match-leak-kinds: reachable
   fun:malloc
   obj:/usr/lib/x86_64-linux-gnu/libLLVM-9.so.1
   fun:_ZN4llvm12PassRegistry12registerPassERKNS_8PassInfoEb
   obj:/usr/lib/x86_64-linux-gnu/libLLVM-9.so.1
   fun:__pthread_once_slow
   fun:_ZN4llvm32initializeEarlyTailDuplicatePassERNS_12PassRegistryE
   fun:_ZN4llvm17initializeCodeGenERNS_12PassRegistryE
   fun:_ZN4llvm16TargetPassConfigC1ERNS_17LLVMTargetMachineERNS_6legacy15PassManagerBaseE
   fun:_ZN4llvm16X86TargetMachine16createPassConfigERNS_6legacy15PassManagerBaseE
   fun:_ZN4llvm17LLVMTargetMachine17addPassesToEmitMCERNS_6legacy15PassManagerBaseERPNS_9MCContextERNS_17raw_pwrite_streamEb
   fun:_ZN4llvm5MCJIT10emitObjectEPNS_6ModuleE
   fun:_ZN4llvm5MCJIT21generateCodeForModuleEPNS_6ModuleE
}
{
   <insert_a_suppression_name_here>
   Memcheck:Leak
   match-leak-kinds: reachable
   fun:malloc
   obj:/usr/lib/x86_64-linux-gnu/libLLVM-9.so.1
   fun:_ZN4llvm12PassRegistry12registerPassERKNS_8PassInfoEb
   obj:/usr/lib/x86_64-linux-gnu/libLLVM-9.so.1
   fun:__pthread_once_slow
   fun:_ZN4llvm40initializeMachineBlockPlacementStatsPassERNS_12PassRegistryE
   fun:_ZN4llvm17initializeCodeGenERNS_12PassRegistryE
   fun:_ZN4llvm16TargetPassConfigC1ERNS_17LLVMTargetMachineERNS_6legacy15PassManagerBaseE
   fun:_ZN4llvm16X86TargetMachine16createPassConfigERNS_6legacy15PassManagerBaseE
   fun:_ZN4llvm17LLVMTargetMachine17addPassesToEmitMCERNS_6legacy15PassManagerBaseERPNS_9MCContextERNS_17raw_pwrite_streamEb
   fun:_ZN4llvm5MCJIT10emitObjectEPNS_6ModuleE
   fun:_ZN4llvm5MCJIT21generateCodeForModuleEPNS_6ModuleE
}
{
   <insert_a_suppression_name_here>
   Memcheck:Leak
   match-leak-kinds: reachable
   fun:malloc
   obj:/usr/lib/x86_64-linux-gnu/libLLVM-9.so.1
   fun:_ZN4llvm12PassRegistry12registerPassERKNS_8PassInfoEb
   obj:/usr/lib/x86_64-linux-gnu/libLLVM-9.so.1
   fun:__pthread_once_slow
   fun:_ZN4llvm35initializeRegUsageInfoCollectorPassERNS_12PassRegistryE
   fun:_ZN4llvm17initializeCodeGenERNS_12PassRegistryE
   fun:_ZN4llvm16TargetPassConfigC1ERNS_17LLVMTargetMachineERNS_6legacy15PassManagerBaseE
   fun:_ZN4llvm16X86TargetMachine16createPassConfigERNS_6legacy15PassManagerBaseE
   fun:_ZN4llvm17LLVMTargetMachine17addPassesToEmitMCERNS_6legacy15PassManagerBaseERPNS_9MCContextERNS_17raw_pwrite_streamEb
   fun:_ZN4llvm5MCJIT10emitObjectEPNS_6ModuleE
   fun:_ZN4llvm5MCJIT21generateCodeForModuleEPNS_6ModuleE
}
{
   <insert_a_suppression_name_here>
   Memcheck:Leak
   match-leak-kinds: reachable
   fun:malloc
   obj:/usr/lib/x86_64-linux-gnu/libLLVM-9.so.1
   fun:_ZN4llvm12PassRegistry12registerPassERKNS_8PassInfoEb
   obj:/usr/lib/x86_64-linux-gnu/libLLVM-9.so.1
   fun:__pthread_once_slow
   fun:_ZN4llvm37initializeRegUsageInfoPropagationPassERNS_12PassRegistryE
   fun:_ZN4llvm17initializeCodeGenERNS_12PassRegistryE
   fun:_ZN4llvm16TargetPassConfigC1ERNS_17LLVMTargetMachineERNS_6legacy15PassManagerBaseE
   fun:_ZN4llvm16X86TargetMachine16createPassConfigERNS_6legacy15PassManagerBaseE
   fun:_ZN4llvm17LLVMTargetMachine17addPassesToEmitMCERNS_6legacy15PassManagerBaseERPNS_9MCContextERNS_17raw_pwrite_streamEb
   fun:_ZN4llvm5MCJIT10emitObjectEPNS_6ModuleE
   fun:_ZN4llvm5MCJIT21generateCodeForModuleEPNS_6ModuleE
}
{
   <insert_a_suppression_name_here>
   Memcheck:Leak
   match-leak-kinds: reachable
   fun:malloc
   obj:/usr/lib/x86_64-linux-gnu/libLLVM-9.so.1
   fun:_ZN4llvm12PassRegistry12registerPassERKNS_8PassInfoEb
   obj:/usr/lib/x86_64-linux-gnu/libLLVM-9.so.1
   fun:__pthread_once_slow
   fun:_ZN4llvm39initializeTwoAddressInstructionPassPassERNS_12PassRegistryE
   fun:_ZN4llvm17initializeCodeGenERNS_12PassRegistryE
   fun:_ZN4llvm16TargetPassConfigC1ERNS_17LLVMTargetMachineERNS_6legacy15PassManagerBaseE
   fun:_ZN4llvm16X86TargetMachine16createPassConfigERNS_6legacy15PassManagerBaseE
   fun:_ZN4llvm17LLVMTargetMachine17addPassesToEmitMCERNS_6legacy15PassManagerBaseERPNS_9MCContextERNS_17raw_pwrite_streamEb
   fun:_ZN4llvm5MCJIT10emitObjectEPNS_6ModuleE
   fun:_ZN4llvm5MCJIT21generateCodeForModuleEPNS_6ModuleE
}
{
   <insert_a_suppression_name_here>
   Memcheck:Leak
   match-leak-kinds: reachable
   fun:malloc
   fun:_ZN4llvm3sys9MutexImplC1Eb
   obj:/usr/lib/x86_64-linux-gnu/libLLVM-9.so.1
   fun:_ZNK4llvm17ManagedStaticBase21RegisterManagedStaticEPFPvvEPFvS1_E
   fun:_ZN4llvm3sys14DynamicLibrary19getPermanentLibraryEPKcPNSt7__cxx1112basic_stringIcSt11char_traitsIcESaIcEEE
   fun:_ZN4llvm13EngineBuilder6createEPNS_13TargetMachineE
   obj:*
   obj:*
   obj:*
   obj:*
   obj:*
   obj:*
}
{
   <insert_a_suppression_name_here>
   Memcheck:Leak
   match-leak-kinds: reachable
   fun:malloc
   obj:/usr/lib/x86_64-linux-gnu/libLLVM-9.so.1
   fun:_ZN4llvm12PassRegistry12registerPassERKNS_8PassInfoEb
   obj:/usr/lib/x86_64-linux-gnu/libLLVM-9.so.1
   fun:__pthread_once_slow
   fun:_ZN4llvm47initializeLazyMachineBlockFrequencyInfoPassPassERNS_12PassRegistryE
   obj:/usr/lib/x86_64-linux-gnu/libLLVM-9.so.1
   fun:__pthread_once_slow
   fun:_ZN4llvm50initializeMachineOptimizationRemarkEmitterPassPassERNS_12PassRegistryE
   fun:_ZN4llvm17initializeCodeGenERNS_12PassRegistryE
   fun:_ZN4llvm16TargetPassConfigC1ERNS_17LLVMTargetMachineERNS_6legacy15PassManagerBaseE
   fun:_ZN4llvm16X86TargetMachine16createPassConfigERNS_6legacy15PassManagerBaseE
}
{
   <insert_a_suppression_name_here>
   Memcheck:Leak
   match-leak-kinds: reachable
   fun:malloc
   fun:_ZN4llvm3sys9MutexImplC1Eb
   obj:/usr/lib/x86_64-linux-gnu/libLLVM-9.so.1
   fun:_ZNK4llvm17ManagedStaticBase21RegisterManagedStaticEPFPvvEPFvS1_E
   fun:_ZN4llvm6SDNode16getValueTypeListENS_3EVTE
   fun:_ZN4llvm12SelectionDAG7getNodeEjRKNS_5SDLocENS_3EVTENS_7SDValueENS_11SDNodeFlagsE
   fun:_ZN4llvm19SelectionDAGBuilder12visitBitCastERKNS_4UserE
   fun:_ZN4llvm19SelectionDAGBuilder5visitERKNS_11InstructionE
   fun:_ZN4llvm16SelectionDAGISel16SelectBasicBlockENS_14ilist_iteratorINS_12ilist_detail12node_optionsINS_11InstructionELb0ELb0EvEELb0ELb1EEES6_Rb
   fun:_ZN4llvm16SelectionDAGISel20SelectAllBasicBlocksERKNS_8FunctionE
   fun:_ZN4llvm16SelectionDAGISel20runOnMachineFunctionERNS_15MachineFunctionE
   obj:/usr/lib/x86_64-linux-gnu/libLLVM-9.so.1
}
{
   <insert_a_suppression_name_here>
   Memcheck:Leak
   match-leak-kinds: reachable
   fun:malloc
   fun:_ZN4llvm3sys9MutexImplC1Eb
   obj:/usr/lib/x86_64-linux-gnu/libLLVM-9.so.1
   fun:_ZNK4llvm17ManagedStaticBase21RegisterManagedStaticEPFPvvEPFvS1_E
   obj:/usr/lib/x86_64-linux-gnu/libLLVM-9.so.1
   fun:_ZN4llvm5MCJIT21generateCodeForModuleEPNS_6ModuleE
   fun:_ZN4llvm5MCJIT14finalizeObjectEv
   fun:LLVMGetPointerToGlobal
   obj:*
   obj:*
   obj:*
   obj:*
}
{
   <insert_a_suppression_name_here>
   Memcheck:Leak
   match-leak-kinds: reachable
   fun:malloc
   obj:/usr/lib/x86_64-linux-gnu/libLLVM-9.so.1
   fun:_ZN4llvm12PassRegistry12registerPassERKNS_8PassInfoEb
   obj:/usr/lib/x86_64-linux-gnu/libLLVM-9.so.1
   fun:__pthread_once_slow
   fun:_ZN4llvm36initializeInterleavedLoadCombinePassERNS_12PassRegistryE
   fun:_ZN4llvm17initializeCodeGenERNS_12PassRegistryE
   fun:_ZN4llvm16TargetPassConfigC1ERNS_17LLVMTargetMachineERNS_6legacy15PassManagerBaseE
   fun:_ZN4llvm16X86TargetMachine16createPassConfigERNS_6legacy15PassManagerBaseE
   fun:_ZN4llvm17LLVMTargetMachine17addPassesToEmitMCERNS_6legacy15PassManagerBaseERPNS_9MCContextERNS_17raw_pwrite_streamEb
   fun:_ZN4llvm5MCJIT10emitObjectEPNS_6ModuleE
   fun:_ZN4llvm5MCJIT21generateCodeForModuleEPNS_6ModuleE
}
{
   <insert_a_suppression_name_here>
   Memcheck:Leak
   match-leak-kinds: reachable
   fun:malloc
   obj:/usr/lib/x86_64-linux-gnu/libLLVM-9.so.1
   fun:_ZN4llvm12PassRegistry12registerPassERKNS_8PassInfoEb
   obj:/usr/lib/x86_64-linux-gnu/libLLVM-9.so.1
   fun:__pthread_once_slow
   fun:_ZN4llvm31createShadowStackGCLoweringPassEv
   fun:_ZN4llvm16TargetPassConfig11addIRPassesEv
   obj:/usr/lib/x86_64-linux-gnu/libLLVM-9.so.1
   fun:_ZN4llvm16TargetPassConfig13addISelPassesEv
   fun:_ZN4llvm17LLVMTargetMachine17addPassesToEmitMCERNS_6legacy15PassManagerBaseERPNS_9MCContextERNS_17raw_pwrite_streamEb
   fun:_ZN4llvm5MCJIT10emitObjectEPNS_6ModuleE
   fun:_ZN4llvm5MCJIT21generateCodeForModuleEPNS_6ModuleE
}
{
   <insert_a_suppression_name_here>
   Memcheck:Leak
   match-leak-kinds: reachable
   fun:malloc
   obj:/usr/lib/x86_64-linux-gnu/libLLVM-9.so.1
   fun:_ZN4llvm12PassRegistry12registerPassERKNS_8PassInfoEb
   obj:/usr/lib/x86_64-linux-gnu/libLLVM-9.so.1
   fun:__pthread_once_slow
   fun:_ZN4llvm33createPartiallyInlineLibCallsPassEv
   fun:_ZN4llvm16TargetPassConfig11addIRPassesEv
   obj:/usr/lib/x86_64-linux-gnu/libLLVM-9.so.1
   fun:_ZN4llvm16TargetPassConfig13addISelPassesEv
   fun:_ZN4llvm17LLVMTargetMachine17addPassesToEmitMCERNS_6legacy15PassManagerBaseERPNS_9MCContextERNS_17raw_pwrite_streamEb
   fun:_ZN4llvm5MCJIT10emitObjectEPNS_6ModuleE
   fun:_ZN4llvm5MCJIT21generateCodeForModuleEPNS_6ModuleE
}
{
   <insert_a_suppression_name_here>
   Memcheck:Leak
   match-leak-kinds: reachable
   fun:malloc
   obj:/usr/lib/x86_64-linux-gnu/libLLVM-9.so.1
   fun:_ZN4llvm12PassRegistry12registerPassERKNS_8PassInfoEb
   obj:/usr/lib/x86_64-linux-gnu/libLLVM-9.so.1
   fun:__pthread_once_slow
   fun:_ZN4llvm41createPostInlineEntryExitInstrumenterPassEv
   fun:_ZN4llvm16TargetPassConfig11addIRPassesEv
   obj:/usr/lib/x86_64-linux-gnu/libLLVM-9.so.1
   fun:_ZN4llvm16TargetPassConfig13addISelPassesEv
   fun:_ZN4llvm17LLVMTargetMachine17addPassesToEmitMCERNS_6legacy15PassManagerBaseERPNS_9MCContextERNS_17raw_pwrite_streamEb
   fun:_ZN4llvm5MCJIT10emitObjectEPNS_6ModuleE
   fun:_ZN4llvm5MCJIT21generateCodeForModuleEPNS_6ModuleE
}
{
   <insert_a_suppression_name_here>
   Memcheck:Leak
   match-leak-kinds: reachable
   fun:malloc
   obj:/usr/lib/x86_64-linux-gnu/libLLVM-9.so.1
   fun:_ZN4llvm12PassRegistry12registerPassERKNS_8PassInfoEb
   obj:/usr/lib/x86_64-linux-gnu/libLLVM-9.so.1
   fun:__pthread_once_slow
   fun:_ZN4llvm50initializeMachineOptimizationRemarkEmitterPassPassERNS_12PassRegistryE
   fun:_ZN4llvm17initializeCodeGenERNS_12PassRegistryE
   fun:_ZN4llvm16TargetPassConfigC1ERNS_17LLVMTargetMachineERNS_6legacy15PassManagerBaseE
   fun:_ZN4llvm16X86TargetMachine16createPassConfigERNS_6legacy15PassManagerBaseE
   fun:_ZN4llvm17LLVMTargetMachine17addPassesToEmitMCERNS_6legacy15PassManagerBaseERPNS_9MCContextERNS_17raw_pwrite_streamEb
   fun:_ZN4llvm5MCJIT10emitObjectEPNS_6ModuleE
   fun:_ZN4llvm5MCJIT21generateCodeForModuleEPNS_6ModuleE
}
{
   <insert_a_suppression_name_here>
   Memcheck:Leak
   match-leak-kinds: reachable
   fun:malloc
   obj:/usr/lib/x86_64-linux-gnu/libLLVM-9.so.1
   fun:_ZN4llvm12PassRegistry12registerPassERKNS_8PassInfoEb
   obj:/usr/lib/x86_64-linux-gnu/libLLVM-9.so.1
   fun:__pthread_once_slow
   fun:_ZN4llvm31initializeRegisterCoalescerPassERNS_12PassRegistryE
   obj:/usr/lib/x86_64-linux-gnu/libLLVM-9.so.1
   fun:__pthread_once_slow
   fun:_ZN4llvm21initializeRABasicPassERNS_12PassRegistryE
   fun:_ZN4llvm17initializeCodeGenERNS_12PassRegistryE
   fun:_ZN4llvm16TargetPassConfigC1ERNS_17LLVMTargetMachineERNS_6legacy15PassManagerBaseE
   fun:_ZN4llvm16X86TargetMachine16createPassConfigERNS_6legacy15PassManagerBaseE
}
{
   <insert_a_suppression_name_here>
   Memcheck:Leak
   match-leak-kinds: reachable
   fun:malloc
   obj:/usr/lib/x86_64-linux-gnu/libLLVM-9.so.1
   fun:_ZN4llvm12PassRegistry12registerPassERKNS_8PassInfoEb
   obj:/usr/lib/x86_64-linux-gnu/libLLVM-9.so.1
   fun:__pthread_once_slow
   fun:_ZN4llvm38initializeRenameIndependentSubregsPassERNS_12PassRegistryE
   fun:_ZN4llvm17initializeCodeGenERNS_12PassRegistryE
   fun:_ZN4llvm16TargetPassConfigC1ERNS_17LLVMTargetMachineERNS_6legacy15PassManagerBaseE
   fun:_ZN4llvm16X86TargetMachine16createPassConfigERNS_6legacy15PassManagerBaseE
   fun:_ZN4llvm17LLVMTargetMachine17addPassesToEmitMCERNS_6legacy15PassManagerBaseERPNS_9MCContextERNS_17raw_pwrite_streamEb
   fun:_ZN4llvm5MCJIT10emitObjectEPNS_6ModuleE
   fun:_ZN4llvm5MCJIT21generateCodeForModuleEPNS_6ModuleE
}
{
   <insert_a_suppression_name_here>
   Memcheck:Leak
   match-leak-kinds: reachable
   fun:malloc
   obj:/usr/lib/x86_64-linux-gnu/libLLVM-9.so.1
   fun:_ZN4llvm12PassRegistry12registerPassERKNS_8PassInfoEb
   obj:/usr/lib/x86_64-linux-gnu/libLLVM-9.so.1
   fun:__pthread_once_slow
   fun:_ZN4llvm41initializeUnreachableMachineBlockElimPassERNS_12PassRegistryE
   obj:/usr/lib/x86_64-linux-gnu/libLLVM-9.so.1
   fun:__pthread_once_slow
   fun:_ZN4llvm27initializeLiveVariablesPassERNS_12PassRegistryE
   fun:_ZN4llvm17initializeCodeGenERNS_12PassRegistryE
   fun:_ZN4llvm16TargetPassConfigC1ERNS_17LLVMTargetMachineERNS_6legacy15PassManagerBaseE
   fun:_ZN4llvm16X86TargetMachine16createPassConfigERNS_6legacy15PassManagerBaseE
}
{
   <insert_a_suppression_name_here>
   Memcheck:Leak
   match-leak-kinds: reachable
   fun:malloc
   obj:/usr/lib/x86_64-linux-gnu/libLLVM-9.so.1
   fun:_ZN4llvm12PassRegistry12registerPassERKNS_8PassInfoEb
   obj:/usr/lib/x86_64-linux-gnu/libLLVM-9.so.1
   fun:__pthread_once_slow
   fun:_ZN4llvm48initializePreISelIntrinsicLoweringLegacyPassPassERNS_12PassRegistryE
   fun:_ZN4llvm17initializeCodeGenERNS_12PassRegistryE
   fun:_ZN4llvm16TargetPassConfigC1ERNS_17LLVMTargetMachineERNS_6legacy15PassManagerBaseE
   fun:_ZN4llvm16X86TargetMachine16createPassConfigERNS_6legacy15PassManagerBaseE
   fun:_ZN4llvm17LLVMTargetMachine17addPassesToEmitMCERNS_6legacy15PassManagerBaseERPNS_9MCContextERNS_17raw_pwrite_streamEb
   fun:_ZN4llvm5MCJIT10emitObjectEPNS_6ModuleE
   fun:_ZN4llvm5MCJIT21generateCodeForModuleEPNS_6ModuleE
}
{
   <insert_a_suppression_name_here>
   Memcheck:Leak
   match-leak-kinds: reachable
   fun:malloc
   obj:/usr/lib/x86_64-linux-gnu/libLLVM-9.so.1
   fun:_ZN4llvm12PassRegistry12registerPassERKNS_8PassInfoEb
   obj:/usr/lib/x86_64-linux-gnu/libLLVM-9.so.1
   fun:__pthread_once_slow
   fun:_ZN4llvm38initializeScalarizeMaskedMemIntrinPassERNS_12PassRegistryE
   fun:_ZN4llvm17initializeCodeGenERNS_12PassRegistryE
   fun:_ZN4llvm16TargetPassConfigC1ERNS_17LLVMTargetMachineERNS_6legacy15PassManagerBaseE
   fun:_ZN4llvm16X86TargetMachine16createPassConfigERNS_6legacy15PassManagerBaseE
   fun:_ZN4llvm17LLVMTargetMachine17addPassesToEmitMCERNS_6legacy15PassManagerBaseERPNS_9MCContextERNS_17raw_pwrite_streamEb
   fun:_ZN4llvm5MCJIT10emitObjectEPNS_6ModuleE
   fun:_ZN4llvm5MCJIT21generateCodeForModuleEPNS_6ModuleE
}
{
   <insert_a_suppression_name_here>
   Memcheck:Leak
   match-leak-kinds: reachable
   fun:_Znwm
   fun:_ZNSt8_Rb_treeIN4llvm3EVTES1_St9_IdentityIS1_ENS1_14compareRawBitsESaIS1_EE16_M_insert_uniqueIRKS1_EESt4pairISt17_Rb_tree_iteratorIS1_EbEOT_
   fun:_ZN4llvm6SDNode16getValueTypeListENS_3EVTE
   fun:_ZN4llvm12SelectionDAG7getNodeEjRKNS_5SDLocENS_3EVTENS_7SDValueENS_11SDNodeFlagsE
   fun:_ZN4llvm19SelectionDAGBuilder12visitBitCastERKNS_4UserE
   fun:_ZN4llvm19SelectionDAGBuilder5visitERKNS_11InstructionE
   fun:_ZN4llvm16SelectionDAGISel16SelectBasicBlockENS_14ilist_iteratorINS_12ilist_detail12node_optionsINS_11InstructionELb0ELb0EvEELb0ELb1EEES6_Rb
   fun:_ZN4llvm16SelectionDAGISel20SelectAllBasicBlocksERKNS_8FunctionE
   fun:_ZN4llvm16SelectionDAGISel20runOnMachineFunctionERNS_15MachineFunctionE
   obj:/usr/lib/x86_64-linux-gnu/libLLVM-9.so.1
   fun:_ZN4llvm19MachineFunctionPass13runOnFunctionERNS_8FunctionE
   fun:_ZN4llvm13FPPassManager13runOnFunctionERNS_8FunctionE
}
{
   <insert_a_suppression_name_here>
   Memcheck:Leak
   match-leak-kinds: reachable
   fun:_Znwm
   fun:_ZNSt8_Rb_treeIN4llvm3EVTES1_St9_IdentityIS1_ENS1_14compareRawBitsESaIS1_EE16_M_insert_uniqueIRKS1_EESt4pairISt17_Rb_tree_iteratorIS1_EbEOT_
   fun:_ZN4llvm6SDNode16getValueTypeListENS_3EVTE
   fun:_ZN4llvm12SelectionDAG7getNodeEjRKNS_5SDLocENS_3EVTENS_7SDValueES5_NS_11SDNodeFlagsE
   fun:_ZN4llvm12SelectionDAG7getNodeEjRKNS_5SDLocENS_3EVTENS_8ArrayRefINS_7SDValueEEENS_11SDNodeFlagsE
   fun:_ZN4llvm19SelectionDAGBuilder18visitShuffleVectorERKNS_4UserE
   fun:_ZN4llvm19SelectionDAGBuilder5visitERKNS_11InstructionE
   fun:_ZN4llvm16SelectionDAGISel16SelectBasicBlockENS_14ilist_iteratorINS_12ilist_detail12node_optionsINS_11InstructionELb0ELb0EvEELb0ELb1EEES6_Rb
   fun:_ZN4llvm16SelectionDAGISel20SelectAllBasicBlocksERKNS_8FunctionE
   fun:_ZN4llvm16SelectionDAGISel20runOnMachineFunctionERNS_15MachineFunctionE
   obj:/usr/lib/x86_64-linux-gnu/libLLVM-9.so.1
   fun:_ZN4llvm19MachineFunctionPass13runOnFunctionERNS_8FunctionE
}
{
   <insert_a_suppression_name_here>
   Memcheck:Leak
   match-leak-kinds: reachable
   fun:_Znwm
   fun:_ZNSt8_Rb_treeIN4llvm3EVTES1_St9_IdentityIS1_ENS1_14compareRawBitsESaIS1_EE16_M_insert_uniqueIRKS1_EESt4pairISt17_Rb_tree_iteratorIS1_EbEOT_
   fun:_ZN4llvm6SDNode16getValueTypeListENS_3EVTE
   fun:_ZN4llvm12SelectionDAG7getNodeEjRKNS_5SDLocENS_3EVTE
   obj:/usr/lib/x86_64-linux-gnu/libLLVM-9.so.1
   obj:/usr/lib/x86_64-linux-gnu/libLLVM-9.so.1
   fun:_ZN4llvm12SelectionDAG7CombineENS_12CombineLevelEPNS_9AAResultsENS_10CodeGenOpt5LevelE
   fun:_ZN4llvm16SelectionDAGISel17CodeGenAndEmitDAGEv
   fun:_ZN4llvm16SelectionDAGISel20SelectAllBasicBlocksERKNS_8FunctionE
   fun:_ZN4llvm16SelectionDAGISel20runOnMachineFunctionERNS_15MachineFunctionE
   obj:/usr/lib/x86_64-linux-gnu/libLLVM-9.so.1
   fun:_ZN4llvm19MachineFunctionPass13runOnFunctionERNS_8FunctionE
}
{
   <insert_a_suppression_name_here>
   Memcheck:Leak
   match-leak-kinds: indirect
   fun:calloc
   obj:*
   obj:*
   obj:*
   obj:*
   obj:*
   obj:*
   obj:*
   obj:*
   obj:*
   obj:*
   obj:*
}
{
   <insert_a_suppression_name_here>
   Memcheck:Leak
   match-leak-kinds: reachable
   fun:_Znwm
   obj:/usr/lib/x86_64-linux-gnu/libLLVM-9.so.1
   fun:__pthread_once_slow
   obj:/usr/lib/x86_64-linux-gnu/libLLVM-9.so.1
   fun:_ZN4llvm14createSROAPassEv
   fun:LLVMAddScalarReplAggregatesPass
   obj:*
   obj:*
   obj:*
   obj:*
   obj:*
   obj:*
}
{
   <insert_a_suppression_name_here>
   Memcheck:Leak
   match-leak-kinds: reachable
   fun:_Znwm
   obj:/usr/lib/x86_64-linux-gnu/libLLVM-9.so.1
   fun:__pthread_once_slow
   fun:_ZN4llvm18createEarlyCSEPassEb
   fun:LLVMAddEarlyCSEPass
   obj:*
   obj:*
   obj:*
   obj:*
   obj:*
   obj:*
   obj:*
}
{
   <insert_a_suppression_name_here>
   Memcheck:Leak
   match-leak-kinds: reachable
   fun:_Znwm
   obj:/usr/lib/x86_64-linux-gnu/libLLVM-9.so.1
   fun:__pthread_once_slow
   obj:/usr/lib/x86_64-linux-gnu/libLLVM-9.so.1
   fun:_ZN4llvm27createCFGSimplificationPassEjbbbbSt8functionIFbRKNS_8FunctionEEE
   fun:LLVMAddCFGSimplificationPass
   obj:*
   obj:*
   obj:*
   obj:*
   obj:*
   obj:*
}
{
   <insert_a_suppression_name_here>
   Memcheck:Leak
   match-leak-kinds: reachable
   fun:_Znwm
   obj:/usr/lib/x86_64-linux-gnu/libLLVM-9.so.1
   fun:__pthread_once_slow
   fun:_ZN4llvm21createReassociatePassEv
   fun:LLVMAddReassociatePass
   obj:*
   obj:*
   obj:*
   obj:*
   obj:*
   obj:*
   obj:*
}
{
   <insert_a_suppression_name_here>
   Memcheck:Leak
   match-leak-kinds: reachable
   fun:_Znwm
   obj:/usr/lib/x86_64-linux-gnu/libLLVM-9.so.1
   fun:__pthread_once_slow
   fun:_ZN4llvm33createPromoteMemoryToRegisterPassEv
   fun:LLVMAddPromoteMemoryToRegisterPass
   obj:*
   obj:*
   obj:*
   obj:*
   obj:*
   obj:*
   obj:*
}
{
   <insert_a_suppression_name_here>
   Memcheck:Leak
   match-leak-kinds: reachable
   fun:_Znwm
   obj:/usr/lib/x86_64-linux-gnu/libLLVM-9.so.1
   fun:__pthread_once_slow
   fun:_ZN4llvm29createConstantPropagationPassEv
   fun:LLVMAddConstantPropagationPass
   obj:*
   obj:*
   obj:*
   obj:*
   obj:*
   obj:*
   obj:*
}
{
   <insert_a_suppression_name_here>
   Memcheck:Leak
   match-leak-kinds: reachable
   fun:_Znwm
   obj:/usr/lib/x86_64-linux-gnu/libLLVM-9.so.1
   fun:__pthread_once_slow
   fun:_ZN4llvm25initializeLazyBPIPassPassERNS_12PassRegistryE
   fun:_ZN4llvm25initializeLazyBFIPassPassERNS_12PassRegistryE
   obj:/usr/lib/x86_64-linux-gnu/libLLVM-9.so.1
   fun:__pthread_once_slow
   fun:_ZN4llvm50initializeOptimizationRemarkEmitterWrapperPassPassERNS_12PassRegistryE
   obj:/usr/lib/x86_64-linux-gnu/libLLVM-9.so.1
   fun:__pthread_once_slow
   fun:LLVMAddInstructionCombiningPass
   obj:*
}
{
   <insert_a_suppression_name_here>
   Memcheck:Leak
   match-leak-kinds: reachable
   fun:_Znwm
   obj:/usr/lib/x86_64-linux-gnu/libLLVM-9.so.1
   fun:__pthread_once_slow
   fun:_ZN4llvm25initializeLazyBFIPassPassERNS_12PassRegistryE
   obj:/usr/lib/x86_64-linux-gnu/libLLVM-9.so.1
   fun:__pthread_once_slow
   fun:_ZN4llvm50initializeOptimizationRemarkEmitterWrapperPassPassERNS_12PassRegistryE
   obj:/usr/lib/x86_64-linux-gnu/libLLVM-9.so.1
   fun:__pthread_once_slow
   fun:LLVMAddInstructionCombiningPass
   obj:*
   obj:*
}
{
   <insert_a_suppression_name_here>
   Memcheck:Leak
   match-leak-kinds: reachable
   fun:_Znwm
   obj:/usr/lib/x86_64-linux-gnu/libLLVM-9.so.1
   fun:__pthread_once_slow
   fun:_ZN4llvm50initializeOptimizationRemarkEmitterWrapperPassPassERNS_12PassRegistryE
   obj:/usr/lib/x86_64-linux-gnu/libLLVM-9.so.1
   fun:__pthread_once_slow
   fun:LLVMAddInstructionCombiningPass
   obj:*
   obj:*
   obj:*
   obj:*
   obj:*
}
{
   <insert_a_suppression_name_here>
   Memcheck:Leak
   match-leak-kinds: reachable
   fun:_Znwm
   obj:/usr/lib/x86_64-linux-gnu/libLLVM-9.so.1
   fun:__pthread_once_slow
   fun:_ZN4llvm43initializeProfileSummaryInfoWrapperPassPassERNS_12PassRegistryE
   obj:/usr/lib/x86_64-linux-gnu/libLLVM-9.so.1
   fun:__pthread_once_slow
   fun:LLVMAddInstructionCombiningPass
   obj:*
   obj:*
   obj:*
   obj:*
   obj:*
}
{
   <insert_a_suppression_name_here>
   Memcheck:Leak
   match-leak-kinds: reachable
   fun:_Znwm
   obj:/usr/lib/x86_64-linux-gnu/libLLVM-9.so.1
   fun:__pthread_once_slow
   fun:LLVMAddInstructionCombiningPass
   obj:*
   obj:*
   obj:*
   obj:*
   obj:*
   obj:*
   obj:*
   obj:*
}
{
   <insert_a_suppression_name_here>
   Memcheck:Leak
   match-leak-kinds: reachable
   fun:_Znwm
   obj:/usr/lib/x86_64-linux-gnu/libLLVM-9.so.1
   fun:__pthread_once_slow
   fun:_ZN4llvm34initializePhiValuesWrapperPassPassERNS_12PassRegistryE
   obj:/usr/lib/x86_64-linux-gnu/libLLVM-9.so.1
   fun:__pthread_once_slow
   fun:_ZN4llvm41initializeMemoryDependenceWrapperPassPassERNS_12PassRegistryE
   obj:/usr/lib/x86_64-linux-gnu/libLLVM-9.so.1
   fun:__pthread_once_slow
   obj:/usr/lib/x86_64-linux-gnu/libLLVM-9.so.1
   fun:_ZN4llvm13createGVNPassEb
   fun:LLVMAddGVNPass
}
{
   <insert_a_suppression_name_here>
   Memcheck:Leak
   match-leak-kinds: reachable
   fun:_Znwm
   obj:/usr/lib/x86_64-linux-gnu/libLLVM-9.so.1
   fun:__pthread_once_slow
   fun:_ZN4llvm41initializeMemoryDependenceWrapperPassPassERNS_12PassRegistryE
   obj:/usr/lib/x86_64-linux-gnu/libLLVM-9.so.1
   fun:__pthread_once_slow
   obj:/usr/lib/x86_64-linux-gnu/libLLVM-9.so.1
   fun:_ZN4llvm13createGVNPassEb
   fun:LLVMAddGVNPass
   obj:*
   obj:*
   obj:*
}
{
   <insert_a_suppression_name_here>
   Memcheck:Leak
   match-leak-kinds: reachable
   fun:_Znwm
   obj:/usr/lib/x86_64-linux-gnu/libLLVM-9.so.1
   fun:__pthread_once_slow
   obj:/usr/lib/x86_64-linux-gnu/libLLVM-9.so.1
   fun:_ZN4llvm13createGVNPassEb
   fun:LLVMAddGVNPass
   obj:*
   obj:*
   obj:*
   obj:*
   obj:*
   obj:*
}
{
   <insert_a_suppression_name_here>
   Memcheck:Leak
   match-leak-kinds: reachable
   fun:_Znwm
   obj:/usr/lib/x86_64-linux-gnu/libLLVM-9.so.1
   fun:__pthread_once_slow
   fun:_ZN4llvm17MachineModuleInfoC1EPKNS_17LLVMTargetMachineE
   fun:_ZN4llvm17LLVMTargetMachine17addPassesToEmitMCERNS_6legacy15PassManagerBaseERPNS_9MCContextERNS_17raw_pwrite_streamEb
   fun:_ZN4llvm5MCJIT10emitObjectEPNS_6ModuleE
   fun:_ZN4llvm5MCJIT21generateCodeForModuleEPNS_6ModuleE
   fun:_ZN4llvm5MCJIT14finalizeObjectEv
   fun:LLVMGetPointerToGlobal
   obj:*
   obj:*
   obj:*
}
{
   <insert_a_suppression_name_here>
   Memcheck:Leak
   match-leak-kinds: reachable
   fun:_Znwm
   obj:/usr/lib/x86_64-linux-gnu/libLLVM-9.so.1
   fun:__pthread_once_slow
   fun:_ZN4llvm26initializeAtomicExpandPassERNS_12PassRegistryE
   fun:_ZN4llvm17initializeCodeGenERNS_12PassRegistryE
   fun:_ZN4llvm16TargetPassConfigC1ERNS_17LLVMTargetMachineERNS_6legacy15PassManagerBaseE
   fun:_ZN4llvm16X86TargetMachine16createPassConfigERNS_6legacy15PassManagerBaseE
   fun:_ZN4llvm17LLVMTargetMachine17addPassesToEmitMCERNS_6legacy15PassManagerBaseERPNS_9MCContextERNS_17raw_pwrite_streamEb
   fun:_ZN4llvm5MCJIT10emitObjectEPNS_6ModuleE
   fun:_ZN4llvm5MCJIT21generateCodeForModuleEPNS_6ModuleE
   fun:_ZN4llvm5MCJIT14finalizeObjectEv
   fun:LLVMGetPointerToGlobal
}
{
   <insert_a_suppression_name_here>
   Memcheck:Leak
   match-leak-kinds: reachable
   fun:_Znwm
   obj:/usr/lib/x86_64-linux-gnu/libLLVM-9.so.1
   fun:__pthread_once_slow
   fun:_ZN4llvm30initializeBranchFolderPassPassERNS_12PassRegistryE
   fun:_ZN4llvm17initializeCodeGenERNS_12PassRegistryE
   fun:_ZN4llvm16TargetPassConfigC1ERNS_17LLVMTargetMachineERNS_6legacy15PassManagerBaseE
   fun:_ZN4llvm16X86TargetMachine16createPassConfigERNS_6legacy15PassManagerBaseE
   fun:_ZN4llvm17LLVMTargetMachine17addPassesToEmitMCERNS_6legacy15PassManagerBaseERPNS_9MCContextERNS_17raw_pwrite_streamEb
   fun:_ZN4llvm5MCJIT10emitObjectEPNS_6ModuleE
   fun:_ZN4llvm5MCJIT21generateCodeForModuleEPNS_6ModuleE
   fun:_ZN4llvm5MCJIT14finalizeObjectEv
   fun:LLVMGetPointerToGlobal
}
{
   <insert_a_suppression_name_here>
   Memcheck:Leak
   match-leak-kinds: reachable
   fun:_Znwm
   obj:/usr/lib/x86_64-linux-gnu/libLLVM-9.so.1
   fun:__pthread_once_slow
   fun:_ZN4llvm30initializeBranchRelaxationPassERNS_12PassRegistryE
   fun:_ZN4llvm17initializeCodeGenERNS_12PassRegistryE
   fun:_ZN4llvm16TargetPassConfigC1ERNS_17LLVMTargetMachineERNS_6legacy15PassManagerBaseE
   fun:_ZN4llvm16X86TargetMachine16createPassConfigERNS_6legacy15PassManagerBaseE
   fun:_ZN4llvm17LLVMTargetMachine17addPassesToEmitMCERNS_6legacy15PassManagerBaseERPNS_9MCContextERNS_17raw_pwrite_streamEb
   fun:_ZN4llvm5MCJIT10emitObjectEPNS_6ModuleE
   fun:_ZN4llvm5MCJIT21generateCodeForModuleEPNS_6ModuleE
   fun:_ZN4llvm5MCJIT14finalizeObjectEv
   fun:LLVMGetPointerToGlobal
}
{
   <insert_a_suppression_name_here>
   Memcheck:Leak
   match-leak-kinds: reachable
   fun:_Znwm
   obj:/usr/lib/x86_64-linux-gnu/libLLVM-9.so.1
   fun:__pthread_once_slow
   fun:_ZN4llvm30initializeCFIInstrInserterPassERNS_12PassRegistryE
   fun:_ZN4llvm17initializeCodeGenERNS_12PassRegistryE
   fun:_ZN4llvm16TargetPassConfigC1ERNS_17LLVMTargetMachineERNS_6legacy15PassManagerBaseE
   fun:_ZN4llvm16X86TargetMachine16createPassConfigERNS_6legacy15PassManagerBaseE
   fun:_ZN4llvm17LLVMTargetMachine17addPassesToEmitMCERNS_6legacy15PassManagerBaseERPNS_9MCContextERNS_17raw_pwrite_streamEb
   fun:_ZN4llvm5MCJIT10emitObjectEPNS_6ModuleE
   fun:_ZN4llvm5MCJIT21generateCodeForModuleEPNS_6ModuleE
   fun:_ZN4llvm5MCJIT14finalizeObjectEv
   fun:LLVMGetPointerToGlobal
}
{
   <insert_a_suppression_name_here>
   Memcheck:Leak
   match-leak-kinds: reachable
   fun:_Znwm
   obj:/usr/lib/x86_64-linux-gnu/libLLVM-9.so.1
   fun:__pthread_once_slow
   fun:_ZN4llvm28initializeCodeGenPreparePassERNS_12PassRegistryE
   fun:_ZN4llvm17initializeCodeGenERNS_12PassRegistryE
   fun:_ZN4llvm16TargetPassConfigC1ERNS_17LLVMTargetMachineERNS_6legacy15PassManagerBaseE
   fun:_ZN4llvm16X86TargetMachine16createPassConfigERNS_6legacy15PassManagerBaseE
   fun:_ZN4llvm17LLVMTargetMachine17addPassesToEmitMCERNS_6legacy15PassManagerBaseERPNS_9MCContextERNS_17raw_pwrite_streamEb
   fun:_ZN4llvm5MCJIT10emitObjectEPNS_6ModuleE
   fun:_ZN4llvm5MCJIT21generateCodeForModuleEPNS_6ModuleE
   fun:_ZN4llvm5MCJIT14finalizeObjectEv
   fun:LLVMGetPointerToGlobal
}
{
   <insert_a_suppression_name_here>
   Memcheck:Leak
   match-leak-kinds: reachable
   fun:_Znwm
   obj:/usr/lib/x86_64-linux-gnu/libLLVM-9.so.1
   fun:__pthread_once_slow
   fun:_ZN4llvm40initializeDeadMachineInstructionElimPassERNS_12PassRegistryE
   fun:_ZN4llvm17initializeCodeGenERNS_12PassRegistryE
   fun:_ZN4llvm16TargetPassConfigC1ERNS_17LLVMTargetMachineERNS_6legacy15PassManagerBaseE
   fun:_ZN4llvm16X86TargetMachine16createPassConfigERNS_6legacy15PassManagerBaseE
   fun:_ZN4llvm17LLVMTargetMachine17addPassesToEmitMCERNS_6legacy15PassManagerBaseERPNS_9MCContextERNS_17raw_pwrite_streamEb
   fun:_ZN4llvm5MCJIT10emitObjectEPNS_6ModuleE
   fun:_ZN4llvm5MCJIT21generateCodeForModuleEPNS_6ModuleE
   fun:_ZN4llvm5MCJIT14finalizeObjectEv
   fun:LLVMGetPointerToGlobal
}
{
   <insert_a_suppression_name_here>
   Memcheck:Leak
   match-leak-kinds: reachable
   fun:_Znwm
   obj:/usr/lib/x86_64-linux-gnu/libLLVM-9.so.1
   fun:__pthread_once_slow
   fun:_ZN4llvm29initializeDetectDeadLanesPassERNS_12PassRegistryE
   fun:_ZN4llvm17initializeCodeGenERNS_12PassRegistryE
   fun:_ZN4llvm16TargetPassConfigC1ERNS_17LLVMTargetMachineERNS_6legacy15PassManagerBaseE
   fun:_ZN4llvm16X86TargetMachine16createPassConfigERNS_6legacy15PassManagerBaseE
   fun:_ZN4llvm17LLVMTargetMachine17addPassesToEmitMCERNS_6legacy15PassManagerBaseERPNS_9MCContextERNS_17raw_pwrite_streamEb
   fun:_ZN4llvm5MCJIT10emitObjectEPNS_6ModuleE
   fun:_ZN4llvm5MCJIT21generateCodeForModuleEPNS_6ModuleE
   fun:_ZN4llvm5MCJIT14finalizeObjectEv
   fun:LLVMGetPointerToGlobal
}
{
   <insert_a_suppression_name_here>
   Memcheck:Leak
   match-leak-kinds: reachable
   fun:_Znwm
   obj:/usr/lib/x86_64-linux-gnu/libLLVM-9.so.1
   fun:__pthread_once_slow
   fun:_ZN4llvm28initializeDwarfEHPreparePassERNS_12PassRegistryE
   fun:_ZN4llvm17initializeCodeGenERNS_12PassRegistryE
   fun:_ZN4llvm16TargetPassConfigC1ERNS_17LLVMTargetMachineERNS_6legacy15PassManagerBaseE
   fun:_ZN4llvm16X86TargetMachine16createPassConfigERNS_6legacy15PassManagerBaseE
   fun:_ZN4llvm17LLVMTargetMachine17addPassesToEmitMCERNS_6legacy15PassManagerBaseERPNS_9MCContextERNS_17raw_pwrite_streamEb
   fun:_ZN4llvm5MCJIT10emitObjectEPNS_6ModuleE
   fun:_ZN4llvm5MCJIT21generateCodeForModuleEPNS_6ModuleE
   fun:_ZN4llvm5MCJIT14finalizeObjectEv
   fun:LLVMGetPointerToGlobal
}
{
   <insert_a_suppression_name_here>
   Memcheck:Leak
   match-leak-kinds: reachable
   fun:_Znwm
   obj:/usr/lib/x86_64-linux-gnu/libLLVM-9.so.1
   fun:__pthread_once_slow
   fun:_ZN4llvm33initializeMachineTraceMetricsPassERNS_12PassRegistryE
   obj:/usr/lib/x86_64-linux-gnu/libLLVM-9.so.1
   fun:__pthread_once_slow
   fun:_ZN4llvm30initializeEarlyIfConverterPassERNS_12PassRegistryE
   fun:_ZN4llvm17initializeCodeGenERNS_12PassRegistryE
   fun:_ZN4llvm16TargetPassConfigC1ERNS_17LLVMTargetMachineERNS_6legacy15PassManagerBaseE
   fun:_ZN4llvm16X86TargetMachine16createPassConfigERNS_6legacy15PassManagerBaseE
   fun:_ZN4llvm17LLVMTargetMachine17addPassesToEmitMCERNS_6legacy15PassManagerBaseERPNS_9MCContextERNS_17raw_pwrite_streamEb
   fun:_ZN4llvm5MCJIT10emitObjectEPNS_6ModuleE
}
{
   <insert_a_suppression_name_here>
   Memcheck:Leak
   match-leak-kinds: reachable
   fun:_Znwm
   obj:/usr/lib/x86_64-linux-gnu/libLLVM-9.so.1
   fun:__pthread_once_slow
   fun:_ZN4llvm30initializeEarlyIfConverterPassERNS_12PassRegistryE
   fun:_ZN4llvm17initializeCodeGenERNS_12PassRegistryE
   fun:_ZN4llvm16TargetPassConfigC1ERNS_17LLVMTargetMachineERNS_6legacy15PassManagerBaseE
   fun:_ZN4llvm16X86TargetMachine16createPassConfigERNS_6legacy15PassManagerBaseE
   fun:_ZN4llvm17LLVMTargetMachine17addPassesToEmitMCERNS_6legacy15PassManagerBaseERPNS_9MCContextERNS_17raw_pwrite_streamEb
   fun:_ZN4llvm5MCJIT10emitObjectEPNS_6ModuleE
   fun:_ZN4llvm5MCJIT21generateCodeForModuleEPNS_6ModuleE
   fun:_ZN4llvm5MCJIT14finalizeObjectEv
   fun:LLVMGetPointerToGlobal
}
{
   <insert_a_suppression_name_here>
   Memcheck:Leak
   match-leak-kinds: reachable
   fun:_Znwm
   obj:/usr/lib/x86_64-linux-gnu/libLLVM-9.so.1
   fun:__pthread_once_slow
   fun:_ZN4llvm30initializeEarlyMachineLICMPassERNS_12PassRegistryE
   fun:_ZN4llvm17initializeCodeGenERNS_12PassRegistryE
   fun:_ZN4llvm16TargetPassConfigC1ERNS_17LLVMTargetMachineERNS_6legacy15PassManagerBaseE
   fun:_ZN4llvm16X86TargetMachine16createPassConfigERNS_6legacy15PassManagerBaseE
   fun:_ZN4llvm17LLVMTargetMachine17addPassesToEmitMCERNS_6legacy15PassManagerBaseERPNS_9MCContextERNS_17raw_pwrite_streamEb
   fun:_ZN4llvm5MCJIT10emitObjectEPNS_6ModuleE
   fun:_ZN4llvm5MCJIT21generateCodeForModuleEPNS_6ModuleE
   fun:_ZN4llvm5MCJIT14finalizeObjectEv
   fun:LLVMGetPointerToGlobal
}
{
   <insert_a_suppression_name_here>
   Memcheck:Leak
   match-leak-kinds: reachable
   fun:_Znwm
   obj:/usr/lib/x86_64-linux-gnu/libLLVM-9.so.1
   fun:__pthread_once_slow
   fun:_ZN4llvm32initializeEarlyTailDuplicatePassERNS_12PassRegistryE
   fun:_ZN4llvm17initializeCodeGenERNS_12PassRegistryE
   fun:_ZN4llvm16TargetPassConfigC1ERNS_17LLVMTargetMachineERNS_6legacy15PassManagerBaseE
   fun:_ZN4llvm16X86TargetMachine16createPassConfigERNS_6legacy15PassManagerBaseE
   fun:_ZN4llvm17LLVMTargetMachine17addPassesToEmitMCERNS_6legacy15PassManagerBaseERPNS_9MCContextERNS_17raw_pwrite_streamEb
   fun:_ZN4llvm5MCJIT10emitObjectEPNS_6ModuleE
   fun:_ZN4llvm5MCJIT21generateCodeForModuleEPNS_6ModuleE
   fun:_ZN4llvm5MCJIT14finalizeObjectEv
   fun:LLVMGetPointerToGlobal
}
{
   <insert_a_suppression_name_here>
   Memcheck:Leak
   match-leak-kinds: reachable
   fun:_Znwm
   obj:/usr/lib/x86_64-linux-gnu/libLLVM-9.so.1
   fun:__pthread_once_slow
   fun:_ZN4llvm30initializeExpandMemCmpPassPassERNS_12PassRegistryE
   fun:_ZN4llvm17initializeCodeGenERNS_12PassRegistryE
   fun:_ZN4llvm16TargetPassConfigC1ERNS_17LLVMTargetMachineERNS_6legacy15PassManagerBaseE
   fun:_ZN4llvm16X86TargetMachine16createPassConfigERNS_6legacy15PassManagerBaseE
   fun:_ZN4llvm17LLVMTargetMachine17addPassesToEmitMCERNS_6legacy15PassManagerBaseERPNS_9MCContextERNS_17raw_pwrite_streamEb
   fun:_ZN4llvm5MCJIT10emitObjectEPNS_6ModuleE
   fun:_ZN4llvm5MCJIT21generateCodeForModuleEPNS_6ModuleE
   fun:_ZN4llvm5MCJIT14finalizeObjectEv
   fun:LLVMGetPointerToGlobal
}
{
   <insert_a_suppression_name_here>
   Memcheck:Leak
   match-leak-kinds: reachable
   fun:_Znwm
   obj:/usr/lib/x86_64-linux-gnu/libLLVM-9.so.1
   fun:__pthread_once_slow
   fun:_ZN4llvm26initializeExpandPostRAPassERNS_12PassRegistryE
   fun:_ZN4llvm17initializeCodeGenERNS_12PassRegistryE
   fun:_ZN4llvm16TargetPassConfigC1ERNS_17LLVMTargetMachineERNS_6legacy15PassManagerBaseE
   fun:_ZN4llvm16X86TargetMachine16createPassConfigERNS_6legacy15PassManagerBaseE
   fun:_ZN4llvm17LLVMTargetMachine17addPassesToEmitMCERNS_6legacy15PassManagerBaseERPNS_9MCContextERNS_17raw_pwrite_streamEb
   fun:_ZN4llvm5MCJIT10emitObjectEPNS_6ModuleE
   fun:_ZN4llvm5MCJIT21generateCodeForModuleEPNS_6ModuleE
   fun:_ZN4llvm5MCJIT14finalizeObjectEv
   fun:LLVMGetPointerToGlobal
}
{
   <insert_a_suppression_name_here>
   Memcheck:Leak
   match-leak-kinds: reachable
   fun:_Znwm
   obj:/usr/lib/x86_64-linux-gnu/libLLVM-9.so.1
   fun:__pthread_once_slow
   fun:_ZN4llvm28initializeFEntryInserterPassERNS_12PassRegistryE
   fun:_ZN4llvm17initializeCodeGenERNS_12PassRegistryE
   fun:_ZN4llvm16TargetPassConfigC1ERNS_17LLVMTargetMachineERNS_6legacy15PassManagerBaseE
   fun:_ZN4llvm16X86TargetMachine16createPassConfigERNS_6legacy15PassManagerBaseE
   fun:_ZN4llvm17LLVMTargetMachine17addPassesToEmitMCERNS_6legacy15PassManagerBaseERPNS_9MCContextERNS_17raw_pwrite_streamEb
   fun:_ZN4llvm5MCJIT10emitObjectEPNS_6ModuleE
   fun:_ZN4llvm5MCJIT21generateCodeForModuleEPNS_6ModuleE
   fun:_ZN4llvm5MCJIT14finalizeObjectEv
   fun:LLVMGetPointerToGlobal
}
{
   <insert_a_suppression_name_here>
   Memcheck:Leak
   match-leak-kinds: reachable
   fun:_Znwm
   obj:/usr/lib/x86_64-linux-gnu/libLLVM-9.so.1
   fun:__pthread_once_slow
   fun:_ZN4llvm26initializeFinalizeISelPassERNS_12PassRegistryE
   fun:_ZN4llvm17initializeCodeGenERNS_12PassRegistryE
   fun:_ZN4llvm16TargetPassConfigC1ERNS_17LLVMTargetMachineERNS_6legacy15PassManagerBaseE
   fun:_ZN4llvm16X86TargetMachine16createPassConfigERNS_6legacy15PassManagerBaseE
   fun:_ZN4llvm17LLVMTargetMachine17addPassesToEmitMCERNS_6legacy15PassManagerBaseERPNS_9MCContextERNS_17raw_pwrite_streamEb
   fun:_ZN4llvm5MCJIT10emitObjectEPNS_6ModuleE
   fun:_ZN4llvm5MCJIT21generateCodeForModuleEPNS_6ModuleE
   fun:_ZN4llvm5MCJIT14finalizeObjectEv
   fun:LLVMGetPointerToGlobal
}
{
   <insert_a_suppression_name_here>
   Memcheck:Leak
   match-leak-kinds: reachable
   fun:_Znwm
   obj:/usr/lib/x86_64-linux-gnu/libLLVM-9.so.1
   fun:__pthread_once_slow
   fun:_ZN4llvm36initializeFinalizeMachineBundlesPassERNS_12PassRegistryE
   fun:_ZN4llvm17initializeCodeGenERNS_12PassRegistryE
   fun:_ZN4llvm16TargetPassConfigC1ERNS_17LLVMTargetMachineERNS_6legacy15PassManagerBaseE
   fun:_ZN4llvm16X86TargetMachine16createPassConfigERNS_6legacy15PassManagerBaseE
   fun:_ZN4llvm17LLVMTargetMachine17addPassesToEmitMCERNS_6legacy15PassManagerBaseERPNS_9MCContextERNS_17raw_pwrite_streamEb
   fun:_ZN4llvm5MCJIT10emitObjectEPNS_6ModuleE
   fun:_ZN4llvm5MCJIT21generateCodeForModuleEPNS_6ModuleE
   fun:_ZN4llvm5MCJIT14finalizeObjectEv
   fun:LLVMGetPointerToGlobal
}
{
   <insert_a_suppression_name_here>
   Memcheck:Leak
   match-leak-kinds: reachable
   fun:_Znwm
   obj:/usr/lib/x86_64-linux-gnu/libLLVM-9.so.1
   fun:__pthread_once_slow
   fun:_ZN4llvm27initializeFuncletLayoutPassERNS_12PassRegistryE
   fun:_ZN4llvm17initializeCodeGenERNS_12PassRegistryE
   fun:_ZN4llvm16TargetPassConfigC1ERNS_17LLVMTargetMachineERNS_6legacy15PassManagerBaseE
   fun:_ZN4llvm16X86TargetMachine16createPassConfigERNS_6legacy15PassManagerBaseE
   fun:_ZN4llvm17LLVMTargetMachine17addPassesToEmitMCERNS_6legacy15PassManagerBaseERPNS_9MCContextERNS_17raw_pwrite_streamEb
   fun:_ZN4llvm5MCJIT10emitObjectEPNS_6ModuleE
   fun:_ZN4llvm5MCJIT21generateCodeForModuleEPNS_6ModuleE
   fun:_ZN4llvm5MCJIT14finalizeObjectEv
   fun:LLVMGetPointerToGlobal
}
{
   <insert_a_suppression_name_here>
   Memcheck:Leak
   match-leak-kinds: reachable
   fun:_Znwm
   obj:/usr/lib/x86_64-linux-gnu/libLLVM-9.so.1
   fun:__pthread_once_slow
   fun:_ZN4llvm35initializeGCMachineCodeAnalysisPassERNS_12PassRegistryE
   fun:_ZN4llvm17initializeCodeGenERNS_12PassRegistryE
   fun:_ZN4llvm16TargetPassConfigC1ERNS_17LLVMTargetMachineERNS_6legacy15PassManagerBaseE
   fun:_ZN4llvm16X86TargetMachine16createPassConfigERNS_6legacy15PassManagerBaseE
   fun:_ZN4llvm17LLVMTargetMachine17addPassesToEmitMCERNS_6legacy15PassManagerBaseERPNS_9MCContextERNS_17raw_pwrite_streamEb
   fun:_ZN4llvm5MCJIT10emitObjectEPNS_6ModuleE
   fun:_ZN4llvm5MCJIT21generateCodeForModuleEPNS_6ModuleE
   fun:_ZN4llvm5MCJIT14finalizeObjectEv
   fun:LLVMGetPointerToGlobal
}
{
   <insert_a_suppression_name_here>
   Memcheck:Leak
   match-leak-kinds: reachable
   fun:_Znwm
   obj:/usr/lib/x86_64-linux-gnu/libLLVM-9.so.1
   fun:__pthread_once_slow
   fun:_ZN4llvm26initializeGCModuleInfoPassERNS_12PassRegistryE
   fun:_ZN4llvm17initializeCodeGenERNS_12PassRegistryE
   fun:_ZN4llvm16TargetPassConfigC1ERNS_17LLVMTargetMachineERNS_6legacy15PassManagerBaseE
   fun:_ZN4llvm16X86TargetMachine16createPassConfigERNS_6legacy15PassManagerBaseE
   fun:_ZN4llvm17LLVMTargetMachine17addPassesToEmitMCERNS_6legacy15PassManagerBaseERPNS_9MCContextERNS_17raw_pwrite_streamEb
   fun:_ZN4llvm5MCJIT10emitObjectEPNS_6ModuleE
   fun:_ZN4llvm5MCJIT21generateCodeForModuleEPNS_6ModuleE
   fun:_ZN4llvm5MCJIT14finalizeObjectEv
   fun:LLVMGetPointerToGlobal
}
{
   <insert_a_suppression_name_here>
   Memcheck:Leak
   match-leak-kinds: reachable
   fun:_Znwm
   obj:/usr/lib/x86_64-linux-gnu/libLLVM-9.so.1
   fun:__pthread_once_slow
   fun:_ZN4llvm27initializeHardwareLoopsPassERNS_12PassRegistryE
   fun:_ZN4llvm17initializeCodeGenERNS_12PassRegistryE
   fun:_ZN4llvm16TargetPassConfigC1ERNS_17LLVMTargetMachineERNS_6legacy15PassManagerBaseE
   fun:_ZN4llvm16X86TargetMachine16createPassConfigERNS_6legacy15PassManagerBaseE
   fun:_ZN4llvm17LLVMTargetMachine17addPassesToEmitMCERNS_6legacy15PassManagerBaseERPNS_9MCContextERNS_17raw_pwrite_streamEb
   fun:_ZN4llvm5MCJIT10emitObjectEPNS_6ModuleE
   fun:_ZN4llvm5MCJIT21generateCodeForModuleEPNS_6ModuleE
   fun:_ZN4llvm5MCJIT14finalizeObjectEv
   fun:LLVMGetPointerToGlobal
}
{
   <insert_a_suppression_name_here>
   Memcheck:Leak
   match-leak-kinds: reachable
   fun:_Znwm
   obj:/usr/lib/x86_64-linux-gnu/libLLVM-9.so.1
   fun:__pthread_once_slow
   fun:_ZN4llvm25initializeIfConverterPassERNS_12PassRegistryE
   fun:_ZN4llvm17initializeCodeGenERNS_12PassRegistryE
   fun:_ZN4llvm16TargetPassConfigC1ERNS_17LLVMTargetMachineERNS_6legacy15PassManagerBaseE
   fun:_ZN4llvm16X86TargetMachine16createPassConfigERNS_6legacy15PassManagerBaseE
   fun:_ZN4llvm17LLVMTargetMachine17addPassesToEmitMCERNS_6legacy15PassManagerBaseERPNS_9MCContextERNS_17raw_pwrite_streamEb
   fun:_ZN4llvm5MCJIT10emitObjectEPNS_6ModuleE
   fun:_ZN4llvm5MCJIT21generateCodeForModuleEPNS_6ModuleE
   fun:_ZN4llvm5MCJIT14finalizeObjectEv
   fun:LLVMGetPointerToGlobal
}
{
   <insert_a_suppression_name_here>
   Memcheck:Leak
   match-leak-kinds: reachable
   fun:_Znwm
   obj:/usr/lib/x86_64-linux-gnu/libLLVM-9.so.1
   fun:__pthread_once_slow
   fun:_ZN4llvm32initializeImplicitNullChecksPassERNS_12PassRegistryE
   fun:_ZN4llvm17initializeCodeGenERNS_12PassRegistryE
   fun:_ZN4llvm16TargetPassConfigC1ERNS_17LLVMTargetMachineERNS_6legacy15PassManagerBaseE
   fun:_ZN4llvm16X86TargetMachine16createPassConfigERNS_6legacy15PassManagerBaseE
   fun:_ZN4llvm17LLVMTargetMachine17addPassesToEmitMCERNS_6legacy15PassManagerBaseERPNS_9MCContextERNS_17raw_pwrite_streamEb
   fun:_ZN4llvm5MCJIT10emitObjectEPNS_6ModuleE
   fun:_ZN4llvm5MCJIT21generateCodeForModuleEPNS_6ModuleE
   fun:_ZN4llvm5MCJIT14finalizeObjectEv
   fun:LLVMGetPointerToGlobal
}
{
   <insert_a_suppression_name_here>
   Memcheck:Leak
   match-leak-kinds: reachable
   fun:_Znwm
   obj:/usr/lib/x86_64-linux-gnu/libLLVM-9.so.1
   fun:__pthread_once_slow
   fun:_ZN4llvm34initializeIndirectBrExpandPassPassERNS_12PassRegistryE
   fun:_ZN4llvm17initializeCodeGenERNS_12PassRegistryE
   fun:_ZN4llvm16TargetPassConfigC1ERNS_17LLVMTargetMachineERNS_6legacy15PassManagerBaseE
   fun:_ZN4llvm16X86TargetMachine16createPassConfigERNS_6legacy15PassManagerBaseE
   fun:_ZN4llvm17LLVMTargetMachine17addPassesToEmitMCERNS_6legacy15PassManagerBaseERPNS_9MCContextERNS_17raw_pwrite_streamEb
   fun:_ZN4llvm5MCJIT10emitObjectEPNS_6ModuleE
   fun:_ZN4llvm5MCJIT21generateCodeForModuleEPNS_6ModuleE
   fun:_ZN4llvm5MCJIT14finalizeObjectEv
   fun:LLVMGetPointerToGlobal
}
{
   <insert_a_suppression_name_here>
   Memcheck:Leak
   match-leak-kinds: reachable
   fun:_Znwm
   obj:/usr/lib/x86_64-linux-gnu/libLLVM-9.so.1
   fun:__pthread_once_slow
   fun:_ZN4llvm34initializeMemorySSAWrapperPassPassERNS_12PassRegistryE
   obj:/usr/lib/x86_64-linux-gnu/libLLVM-9.so.1
   fun:__pthread_once_slow
   fun:_ZN4llvm36initializeInterleavedLoadCombinePassERNS_12PassRegistryE
   fun:_ZN4llvm17initializeCodeGenERNS_12PassRegistryE
   fun:_ZN4llvm16TargetPassConfigC1ERNS_17LLVMTargetMachineERNS_6legacy15PassManagerBaseE
   fun:_ZN4llvm16X86TargetMachine16createPassConfigERNS_6legacy15PassManagerBaseE
   fun:_ZN4llvm17LLVMTargetMachine17addPassesToEmitMCERNS_6legacy15PassManagerBaseERPNS_9MCContextERNS_17raw_pwrite_streamEb
   fun:_ZN4llvm5MCJIT10emitObjectEPNS_6ModuleE
}
{
   <insert_a_suppression_name_here>
   Memcheck:Leak
   match-leak-kinds: reachable
   fun:_Znwm
   obj:/usr/lib/x86_64-linux-gnu/libLLVM-9.so.1
   fun:__pthread_once_slow
   fun:_ZN4llvm36initializeInterleavedLoadCombinePassERNS_12PassRegistryE
   fun:_ZN4llvm17initializeCodeGenERNS_12PassRegistryE
   fun:_ZN4llvm16TargetPassConfigC1ERNS_17LLVMTargetMachineERNS_6legacy15PassManagerBaseE
   fun:_ZN4llvm16X86TargetMachine16createPassConfigERNS_6legacy15PassManagerBaseE
   fun:_ZN4llvm17LLVMTargetMachine17addPassesToEmitMCERNS_6legacy15PassManagerBaseERPNS_9MCContextERNS_17raw_pwrite_streamEb
   fun:_ZN4llvm5MCJIT10emitObjectEPNS_6ModuleE
   fun:_ZN4llvm5MCJIT21generateCodeForModuleEPNS_6ModuleE
   fun:_ZN4llvm5MCJIT14finalizeObjectEv
   fun:LLVMGetPointerToGlobal
}
{
   <insert_a_suppression_name_here>
   Memcheck:Leak
   match-leak-kinds: reachable
   fun:_Znwm
   obj:/usr/lib/x86_64-linux-gnu/libLLVM-9.so.1
   fun:__pthread_once_slow
   fun:_ZN4llvm31initializeInterleavedAccessPassERNS_12PassRegistryE
   fun:_ZN4llvm17initializeCodeGenERNS_12PassRegistryE
   fun:_ZN4llvm16TargetPassConfigC1ERNS_17LLVMTargetMachineERNS_6legacy15PassManagerBaseE
   fun:_ZN4llvm16X86TargetMachine16createPassConfigERNS_6legacy15PassManagerBaseE
   fun:_ZN4llvm17LLVMTargetMachine17addPassesToEmitMCERNS_6legacy15PassManagerBaseERPNS_9MCContextERNS_17raw_pwrite_streamEb
   fun:_ZN4llvm5MCJIT10emitObjectEPNS_6ModuleE
   fun:_ZN4llvm5MCJIT21generateCodeForModuleEPNS_6ModuleE
   fun:_ZN4llvm5MCJIT14finalizeObjectEv
   fun:LLVMGetPointerToGlobal
}
{
   <insert_a_suppression_name_here>
   Memcheck:Leak
   match-leak-kinds: reachable
   fun:_Znwm
   obj:/usr/lib/x86_64-linux-gnu/libLLVM-9.so.1
   fun:__pthread_once_slow
   fun:_ZN4llvm29initializeLiveDebugValuesPassERNS_12PassRegistryE
   fun:_ZN4llvm17initializeCodeGenERNS_12PassRegistryE
   fun:_ZN4llvm16TargetPassConfigC1ERNS_17LLVMTargetMachineERNS_6legacy15PassManagerBaseE
   fun:_ZN4llvm16X86TargetMachine16createPassConfigERNS_6legacy15PassManagerBaseE
   fun:_ZN4llvm17LLVMTargetMachine17addPassesToEmitMCERNS_6legacy15PassManagerBaseERPNS_9MCContextERNS_17raw_pwrite_streamEb
   fun:_ZN4llvm5MCJIT10emitObjectEPNS_6ModuleE
   fun:_ZN4llvm5MCJIT21generateCodeForModuleEPNS_6ModuleE
   fun:_ZN4llvm5MCJIT14finalizeObjectEv
   fun:LLVMGetPointerToGlobal
}
{
   <insert_a_suppression_name_here>
   Memcheck:Leak
   match-leak-kinds: reachable
   fun:_Znwm
   obj:/usr/lib/x86_64-linux-gnu/libLLVM-9.so.1
   fun:__pthread_once_slow
   fun:_ZN4llvm25initializeSlotIndexesPassERNS_12PassRegistryE
   obj:/usr/lib/x86_64-linux-gnu/libLLVM-9.so.1
   fun:__pthread_once_slow
   fun:_ZN4llvm27initializeLiveIntervalsPassERNS_12PassRegistryE
   obj:/usr/lib/x86_64-linux-gnu/libLLVM-9.so.1
   fun:__pthread_once_slow
   fun:_ZN4llvm32initializeLiveDebugVariablesPassERNS_12PassRegistryE
   fun:_ZN4llvm17initializeCodeGenERNS_12PassRegistryE
   fun:_ZN4llvm16TargetPassConfigC1ERNS_17LLVMTargetMachineERNS_6legacy15PassManagerBaseE
}
{
   <insert_a_suppression_name_here>
   Memcheck:Leak
   match-leak-kinds: reachable
   fun:_Znwm
   obj:/usr/lib/x86_64-linux-gnu/libLLVM-9.so.1
   fun:__pthread_once_slow
   fun:_ZN4llvm27initializeLiveIntervalsPassERNS_12PassRegistryE
   obj:/usr/lib/x86_64-linux-gnu/libLLVM-9.so.1
   fun:__pthread_once_slow
   fun:_ZN4llvm32initializeLiveDebugVariablesPassERNS_12PassRegistryE
   fun:_ZN4llvm17initializeCodeGenERNS_12PassRegistryE
   fun:_ZN4llvm16TargetPassConfigC1ERNS_17LLVMTargetMachineERNS_6legacy15PassManagerBaseE
   fun:_ZN4llvm16X86TargetMachine16createPassConfigERNS_6legacy15PassManagerBaseE
   fun:_ZN4llvm17LLVMTargetMachine17addPassesToEmitMCERNS_6legacy15PassManagerBaseERPNS_9MCContextERNS_17raw_pwrite_streamEb
   fun:_ZN4llvm5MCJIT10emitObjectEPNS_6ModuleE
}
{
   <insert_a_suppression_name_here>
   Memcheck:Leak
   match-leak-kinds: reachable
   fun:_Znwm
   obj:/usr/lib/x86_64-linux-gnu/libLLVM-9.so.1
   fun:__pthread_once_slow
   fun:_ZN4llvm32initializeLiveDebugVariablesPassERNS_12PassRegistryE
   fun:_ZN4llvm17initializeCodeGenERNS_12PassRegistryE
   fun:_ZN4llvm16TargetPassConfigC1ERNS_17LLVMTargetMachineERNS_6legacy15PassManagerBaseE
   fun:_ZN4llvm16X86TargetMachine16createPassConfigERNS_6legacy15PassManagerBaseE
   fun:_ZN4llvm17LLVMTargetMachine17addPassesToEmitMCERNS_6legacy15PassManagerBaseERPNS_9MCContextERNS_17raw_pwrite_streamEb
   fun:_ZN4llvm5MCJIT10emitObjectEPNS_6ModuleE
   fun:_ZN4llvm5MCJIT21generateCodeForModuleEPNS_6ModuleE
   fun:_ZN4llvm5MCJIT14finalizeObjectEv
   fun:LLVMGetPointerToGlobal
}
{
   <insert_a_suppression_name_here>
   Memcheck:Leak
   match-leak-kinds: reachable
   fun:_Znwm
   obj:/usr/lib/x86_64-linux-gnu/libLLVM-9.so.1
   fun:__pthread_once_slow
   fun:_ZN4llvm29initializeLiveRangeShrinkPassERNS_12PassRegistryE
   fun:_ZN4llvm17initializeCodeGenERNS_12PassRegistryE
   fun:_ZN4llvm16TargetPassConfigC1ERNS_17LLVMTargetMachineERNS_6legacy15PassManagerBaseE
   fun:_ZN4llvm16X86TargetMachine16createPassConfigERNS_6legacy15PassManagerBaseE
   fun:_ZN4llvm17LLVMTargetMachine17addPassesToEmitMCERNS_6legacy15PassManagerBaseERPNS_9MCContextERNS_17raw_pwrite_streamEb
   fun:_ZN4llvm5MCJIT10emitObjectEPNS_6ModuleE
   fun:_ZN4llvm5MCJIT21generateCodeForModuleEPNS_6ModuleE
   fun:_ZN4llvm5MCJIT14finalizeObjectEv
   fun:LLVMGetPointerToGlobal
}
{
   <insert_a_suppression_name_here>
   Memcheck:Leak
   match-leak-kinds: reachable
   fun:_Znwm
   obj:/usr/lib/x86_64-linux-gnu/libLLVM-9.so.1
   fun:__pthread_once_slow
   fun:_ZN4llvm24initializeLiveStacksPassERNS_12PassRegistryE
   fun:_ZN4llvm17initializeCodeGenERNS_12PassRegistryE
   fun:_ZN4llvm16TargetPassConfigC1ERNS_17LLVMTargetMachineERNS_6legacy15PassManagerBaseE
   fun:_ZN4llvm16X86TargetMachine16createPassConfigERNS_6legacy15PassManagerBaseE
   fun:_ZN4llvm17LLVMTargetMachine17addPassesToEmitMCERNS_6legacy15PassManagerBaseERPNS_9MCContextERNS_17raw_pwrite_streamEb
   fun:_ZN4llvm5MCJIT10emitObjectEPNS_6ModuleE
   fun:_ZN4llvm5MCJIT21generateCodeForModuleEPNS_6ModuleE
   fun:_ZN4llvm5MCJIT14finalizeObjectEv
   fun:LLVMGetPointerToGlobal
}
{
   <insert_a_suppression_name_here>
   Memcheck:Leak
   match-leak-kinds: reachable
   fun:_Znwm
   obj:/usr/lib/x86_64-linux-gnu/libLLVM-9.so.1
   fun:__pthread_once_slow
   fun:_ZN4llvm41initializeUnreachableMachineBlockElimPassERNS_12PassRegistryE
   obj:/usr/lib/x86_64-linux-gnu/libLLVM-9.so.1
   fun:__pthread_once_slow
   fun:_ZN4llvm27initializeLiveVariablesPassERNS_12PassRegistryE
   fun:_ZN4llvm17initializeCodeGenERNS_12PassRegistryE
   fun:_ZN4llvm16TargetPassConfigC1ERNS_17LLVMTargetMachineERNS_6legacy15PassManagerBaseE
   fun:_ZN4llvm16X86TargetMachine16createPassConfigERNS_6legacy15PassManagerBaseE
   fun:_ZN4llvm17LLVMTargetMachine17addPassesToEmitMCERNS_6legacy15PassManagerBaseERPNS_9MCContextERNS_17raw_pwrite_streamEb
   fun:_ZN4llvm5MCJIT10emitObjectEPNS_6ModuleE
}
{
   <insert_a_suppression_name_here>
   Memcheck:Leak
   match-leak-kinds: reachable
   fun:_Znwm
   obj:/usr/lib/x86_64-linux-gnu/libLLVM-9.so.1
   fun:__pthread_once_slow
   fun:_ZN4llvm27initializeLiveVariablesPassERNS_12PassRegistryE
   fun:_ZN4llvm17initializeCodeGenERNS_12PassRegistryE
   fun:_ZN4llvm16TargetPassConfigC1ERNS_17LLVMTargetMachineERNS_6legacy15PassManagerBaseE
   fun:_ZN4llvm16X86TargetMachine16createPassConfigERNS_6legacy15PassManagerBaseE
   fun:_ZN4llvm17LLVMTargetMachine17addPassesToEmitMCERNS_6legacy15PassManagerBaseERPNS_9MCContextERNS_17raw_pwrite_streamEb
   fun:_ZN4llvm5MCJIT10emitObjectEPNS_6ModuleE
   fun:_ZN4llvm5MCJIT21generateCodeForModuleEPNS_6ModuleE
   fun:_ZN4llvm5MCJIT14finalizeObjectEv
   fun:LLVMGetPointerToGlobal
}
{
   <insert_a_suppression_name_here>
   Memcheck:Leak
   match-leak-kinds: reachable
   fun:_Znwm
   obj:/usr/lib/x86_64-linux-gnu/libLLVM-9.so.1
   fun:__pthread_once_slow
   fun:_ZN4llvm32initializeLocalStackSlotPassPassERNS_12PassRegistryE
   fun:_ZN4llvm17initializeCodeGenERNS_12PassRegistryE
   fun:_ZN4llvm16TargetPassConfigC1ERNS_17LLVMTargetMachineERNS_6legacy15PassManagerBaseE
   fun:_ZN4llvm16X86TargetMachine16createPassConfigERNS_6legacy15PassManagerBaseE
   fun:_ZN4llvm17LLVMTargetMachine17addPassesToEmitMCERNS_6legacy15PassManagerBaseERPNS_9MCContextERNS_17raw_pwrite_streamEb
   fun:_ZN4llvm5MCJIT10emitObjectEPNS_6ModuleE
   fun:_ZN4llvm5MCJIT21generateCodeForModuleEPNS_6ModuleE
   fun:_ZN4llvm5MCJIT14finalizeObjectEv
   fun:LLVMGetPointerToGlobal
}
{
   <insert_a_suppression_name_here>
   Memcheck:Leak
   match-leak-kinds: reachable
   fun:_Znwm
   obj:/usr/lib/x86_64-linux-gnu/libLLVM-9.so.1
   fun:__pthread_once_slow
   fun:_ZN4llvm29initializeLowerIntrinsicsPassERNS_12PassRegistryE
   fun:_ZN4llvm17initializeCodeGenERNS_12PassRegistryE
   fun:_ZN4llvm16TargetPassConfigC1ERNS_17LLVMTargetMachineERNS_6legacy15PassManagerBaseE
   fun:_ZN4llvm16X86TargetMachine16createPassConfigERNS_6legacy15PassManagerBaseE
   fun:_ZN4llvm17LLVMTargetMachine17addPassesToEmitMCERNS_6legacy15PassManagerBaseERPNS_9MCContextERNS_17raw_pwrite_streamEb
   fun:_ZN4llvm5MCJIT10emitObjectEPNS_6ModuleE
   fun:_ZN4llvm5MCJIT21generateCodeForModuleEPNS_6ModuleE
   fun:_ZN4llvm5MCJIT14finalizeObjectEv
   fun:LLVMGetPointerToGlobal
}
{
   <insert_a_suppression_name_here>
   Memcheck:Leak
   match-leak-kinds: reachable
   fun:_Znwm
   obj:/usr/lib/x86_64-linux-gnu/libLLVM-9.so.1
   fun:__pthread_once_slow
   fun:_ZN4llvm30initializeMIRCanonicalizerPassERNS_12PassRegistryE
   fun:_ZN4llvm17initializeCodeGenERNS_12PassRegistryE
   fun:_ZN4llvm16TargetPassConfigC1ERNS_17LLVMTargetMachineERNS_6legacy15PassManagerBaseE
   fun:_ZN4llvm16X86TargetMachine16createPassConfigERNS_6legacy15PassManagerBaseE
   fun:_ZN4llvm17LLVMTargetMachine17addPassesToEmitMCERNS_6legacy15PassManagerBaseERPNS_9MCContextERNS_17raw_pwrite_streamEb
   fun:_ZN4llvm5MCJIT10emitObjectEPNS_6ModuleE
   fun:_ZN4llvm5MCJIT21generateCodeForModuleEPNS_6ModuleE
   fun:_ZN4llvm5MCJIT14finalizeObjectEv
   fun:LLVMGetPointerToGlobal
}
{
   <insert_a_suppression_name_here>
   Memcheck:Leak
   match-leak-kinds: reachable
   fun:_Znwm
   obj:/usr/lib/x86_64-linux-gnu/libLLVM-9.so.1
   fun:__pthread_once_slow
   fun:_ZN4llvm38initializeMachinePostDominatorTreePassERNS_12PassRegistryE
   obj:/usr/lib/x86_64-linux-gnu/libLLVM-9.so.1
   fun:__pthread_once_slow
   fun:_ZN4llvm35initializeMachineBlockPlacementPassERNS_12PassRegistryE
   fun:_ZN4llvm17initializeCodeGenERNS_12PassRegistryE
   fun:_ZN4llvm16TargetPassConfigC1ERNS_17LLVMTargetMachineERNS_6legacy15PassManagerBaseE
   fun:_ZN4llvm16X86TargetMachine16createPassConfigERNS_6legacy15PassManagerBaseE
   fun:_ZN4llvm17LLVMTargetMachine17addPassesToEmitMCERNS_6legacy15PassManagerBaseERPNS_9MCContextERNS_17raw_pwrite_streamEb
   fun:_ZN4llvm5MCJIT10emitObjectEPNS_6ModuleE
}
{
   <insert_a_suppression_name_here>
   Memcheck:Leak
   match-leak-kinds: reachable
   fun:_Znwm
   obj:/usr/lib/x86_64-linux-gnu/libLLVM-9.so.1
   fun:__pthread_once_slow
   fun:_ZN4llvm35initializeMachineBlockPlacementPassERNS_12PassRegistryE
   fun:_ZN4llvm17initializeCodeGenERNS_12PassRegistryE
   fun:_ZN4llvm16TargetPassConfigC1ERNS_17LLVMTargetMachineERNS_6legacy15PassManagerBaseE
   fun:_ZN4llvm16X86TargetMachine16createPassConfigERNS_6legacy15PassManagerBaseE
   fun:_ZN4llvm17LLVMTargetMachine17addPassesToEmitMCERNS_6legacy15PassManagerBaseERPNS_9MCContextERNS_17raw_pwrite_streamEb
   fun:_ZN4llvm5MCJIT10emitObjectEPNS_6ModuleE
   fun:_ZN4llvm5MCJIT21generateCodeForModuleEPNS_6ModuleE
   fun:_ZN4llvm5MCJIT14finalizeObjectEv
   fun:LLVMGetPointerToGlobal
}
{
   <insert_a_suppression_name_here>
   Memcheck:Leak
   match-leak-kinds: reachable
   fun:_Znwm
   obj:/usr/lib/x86_64-linux-gnu/libLLVM-9.so.1
   fun:__pthread_once_slow
   fun:_ZN4llvm40initializeMachineBlockPlacementStatsPassERNS_12PassRegistryE
   fun:_ZN4llvm17initializeCodeGenERNS_12PassRegistryE
   fun:_ZN4llvm16TargetPassConfigC1ERNS_17LLVMTargetMachineERNS_6legacy15PassManagerBaseE
   fun:_ZN4llvm16X86TargetMachine16createPassConfigERNS_6legacy15PassManagerBaseE
   fun:_ZN4llvm17LLVMTargetMachine17addPassesToEmitMCERNS_6legacy15PassManagerBaseERPNS_9MCContextERNS_17raw_pwrite_streamEb
   fun:_ZN4llvm5MCJIT10emitObjectEPNS_6ModuleE
   fun:_ZN4llvm5MCJIT21generateCodeForModuleEPNS_6ModuleE
   fun:_ZN4llvm5MCJIT14finalizeObjectEv
   fun:LLVMGetPointerToGlobal
}
{
   <insert_a_suppression_name_here>
   Memcheck:Leak
   match-leak-kinds: reachable
   fun:_Znwm
   obj:/usr/lib/x86_64-linux-gnu/libLLVM-9.so.1
   fun:__pthread_once_slow
   fun:_ZN4llvm24initializeMachineCSEPassERNS_12PassRegistryE
   fun:_ZN4llvm17initializeCodeGenERNS_12PassRegistryE
   fun:_ZN4llvm16TargetPassConfigC1ERNS_17LLVMTargetMachineERNS_6legacy15PassManagerBaseE
   fun:_ZN4llvm16X86TargetMachine16createPassConfigERNS_6legacy15PassManagerBaseE
   fun:_ZN4llvm17LLVMTargetMachine17addPassesToEmitMCERNS_6legacy15PassManagerBaseERPNS_9MCContextERNS_17raw_pwrite_streamEb
   fun:_ZN4llvm5MCJIT10emitObjectEPNS_6ModuleE
   fun:_ZN4llvm5MCJIT21generateCodeForModuleEPNS_6ModuleE
   fun:_ZN4llvm5MCJIT14finalizeObjectEv
   fun:LLVMGetPointerToGlobal
}
{
   <insert_a_suppression_name_here>
   Memcheck:Leak
   match-leak-kinds: reachable
   fun:_Znwm
   obj:/usr/lib/x86_64-linux-gnu/libLLVM-9.so.1
   fun:__pthread_once_slow
   fun:_ZN4llvm29initializeMachineCombinerPassERNS_12PassRegistryE
   fun:_ZN4llvm17initializeCodeGenERNS_12PassRegistryE
   fun:_ZN4llvm16TargetPassConfigC1ERNS_17LLVMTargetMachineERNS_6legacy15PassManagerBaseE
   fun:_ZN4llvm16X86TargetMachine16createPassConfigERNS_6legacy15PassManagerBaseE
   fun:_ZN4llvm17LLVMTargetMachine17addPassesToEmitMCERNS_6legacy15PassManagerBaseERPNS_9MCContextERNS_17raw_pwrite_streamEb
   fun:_ZN4llvm5MCJIT10emitObjectEPNS_6ModuleE
   fun:_ZN4llvm5MCJIT21generateCodeForModuleEPNS_6ModuleE
   fun:_ZN4llvm5MCJIT14finalizeObjectEv
   fun:LLVMGetPointerToGlobal
}
{
   <insert_a_suppression_name_here>
   Memcheck:Leak
   match-leak-kinds: reachable
   fun:_Znwm
   obj:/usr/lib/x86_64-linux-gnu/libLLVM-9.so.1
   fun:__pthread_once_slow
   fun:_ZN4llvm36initializeMachineCopyPropagationPassERNS_12PassRegistryE
   fun:_ZN4llvm17initializeCodeGenERNS_12PassRegistryE
   fun:_ZN4llvm16TargetPassConfigC1ERNS_17LLVMTargetMachineERNS_6legacy15PassManagerBaseE
   fun:_ZN4llvm16X86TargetMachine16createPassConfigERNS_6legacy15PassManagerBaseE
   fun:_ZN4llvm17LLVMTargetMachine17addPassesToEmitMCERNS_6legacy15PassManagerBaseERPNS_9MCContextERNS_17raw_pwrite_streamEb
   fun:_ZN4llvm5MCJIT10emitObjectEPNS_6ModuleE
   fun:_ZN4llvm5MCJIT21generateCodeForModuleEPNS_6ModuleE
   fun:_ZN4llvm5MCJIT14finalizeObjectEv
   fun:LLVMGetPointerToGlobal
}
{
   <insert_a_suppression_name_here>
   Memcheck:Leak
   match-leak-kinds: reachable
   fun:_Znwm
   obj:/usr/lib/x86_64-linux-gnu/libLLVM-9.so.1
   fun:__pthread_once_slow
   fun:_ZN4llvm40initializeMachineFunctionPrinterPassPassERNS_12PassRegistryE
   fun:_ZN4llvm17initializeCodeGenERNS_12PassRegistryE
   fun:_ZN4llvm16TargetPassConfigC1ERNS_17LLVMTargetMachineERNS_6legacy15PassManagerBaseE
   fun:_ZN4llvm16X86TargetMachine16createPassConfigERNS_6legacy15PassManagerBaseE
   fun:_ZN4llvm17LLVMTargetMachine17addPassesToEmitMCERNS_6legacy15PassManagerBaseERPNS_9MCContextERNS_17raw_pwrite_streamEb
   fun:_ZN4llvm5MCJIT10emitObjectEPNS_6ModuleE
   fun:_ZN4llvm5MCJIT21generateCodeForModuleEPNS_6ModuleE
   fun:_ZN4llvm5MCJIT14finalizeObjectEv
   fun:LLVMGetPointerToGlobal
}
{
   <insert_a_suppression_name_here>
   Memcheck:Leak
   match-leak-kinds: reachable
   fun:_Znwm
   obj:/usr/lib/x86_64-linux-gnu/libLLVM-9.so.1
   fun:__pthread_once_slow
   fun:_ZN4llvm25initializeMachineLICMPassERNS_12PassRegistryE
   fun:_ZN4llvm17initializeCodeGenERNS_12PassRegistryE
   fun:_ZN4llvm16TargetPassConfigC1ERNS_17LLVMTargetMachineERNS_6legacy15PassManagerBaseE
   fun:_ZN4llvm16X86TargetMachine16createPassConfigERNS_6legacy15PassManagerBaseE
   fun:_ZN4llvm17LLVMTargetMachine17addPassesToEmitMCERNS_6legacy15PassManagerBaseERPNS_9MCContextERNS_17raw_pwrite_streamEb
   fun:_ZN4llvm5MCJIT10emitObjectEPNS_6ModuleE
   fun:_ZN4llvm5MCJIT21generateCodeForModuleEPNS_6ModuleE
   fun:_ZN4llvm5MCJIT14finalizeObjectEv
   fun:LLVMGetPointerToGlobal
}
{
   <insert_a_suppression_name_here>
   Memcheck:Leak
   match-leak-kinds: reachable
   fun:_Znwm
   obj:/usr/lib/x86_64-linux-gnu/libLLVM-9.so.1
   fun:__pthread_once_slow
   fun:_ZN4llvm47initializeLazyMachineBlockFrequencyInfoPassPassERNS_12PassRegistryE
   obj:/usr/lib/x86_64-linux-gnu/libLLVM-9.so.1
   fun:__pthread_once_slow
   fun:_ZN4llvm50initializeMachineOptimizationRemarkEmitterPassPassERNS_12PassRegistryE
   fun:_ZN4llvm17initializeCodeGenERNS_12PassRegistryE
   fun:_ZN4llvm16TargetPassConfigC1ERNS_17LLVMTargetMachineERNS_6legacy15PassManagerBaseE
   fun:_ZN4llvm16X86TargetMachine16createPassConfigERNS_6legacy15PassManagerBaseE
   fun:_ZN4llvm17LLVMTargetMachine17addPassesToEmitMCERNS_6legacy15PassManagerBaseERPNS_9MCContextERNS_17raw_pwrite_streamEb
   fun:_ZN4llvm5MCJIT10emitObjectEPNS_6ModuleE
}
{
   <insert_a_suppression_name_here>
   Memcheck:Leak
   match-leak-kinds: reachable
   fun:_Znwm
   obj:/usr/lib/x86_64-linux-gnu/libLLVM-9.so.1
   fun:__pthread_once_slow
   fun:_ZN4llvm50initializeMachineOptimizationRemarkEmitterPassPassERNS_12PassRegistryE
   fun:_ZN4llvm17initializeCodeGenERNS_12PassRegistryE
   fun:_ZN4llvm16TargetPassConfigC1ERNS_17LLVMTargetMachineERNS_6legacy15PassManagerBaseE
   fun:_ZN4llvm16X86TargetMachine16createPassConfigERNS_6legacy15PassManagerBaseE
   fun:_ZN4llvm17LLVMTargetMachine17addPassesToEmitMCERNS_6legacy15PassManagerBaseERPNS_9MCContextERNS_17raw_pwrite_streamEb
   fun:_ZN4llvm5MCJIT10emitObjectEPNS_6ModuleE
   fun:_ZN4llvm5MCJIT21generateCodeForModuleEPNS_6ModuleE
   fun:_ZN4llvm5MCJIT14finalizeObjectEv
   fun:LLVMGetPointerToGlobal
}
{
   <insert_a_suppression_name_here>
   Memcheck:Leak
   match-leak-kinds: reachable
   fun:_Znwm
   obj:/usr/lib/x86_64-linux-gnu/libLLVM-9.so.1
   fun:__pthread_once_slow
   fun:_ZN4llvm29initializeMachineOutlinerPassERNS_12PassRegistryE
   fun:_ZN4llvm17initializeCodeGenERNS_12PassRegistryE
   fun:_ZN4llvm16TargetPassConfigC1ERNS_17LLVMTargetMachineERNS_6legacy15PassManagerBaseE
   fun:_ZN4llvm16X86TargetMachine16createPassConfigERNS_6legacy15PassManagerBaseE
   fun:_ZN4llvm17LLVMTargetMachine17addPassesToEmitMCERNS_6legacy15PassManagerBaseERPNS_9MCContextERNS_17raw_pwrite_streamEb
   fun:_ZN4llvm5MCJIT10emitObjectEPNS_6ModuleE
   fun:_ZN4llvm5MCJIT21generateCodeForModuleEPNS_6ModuleE
   fun:_ZN4llvm5MCJIT14finalizeObjectEv
   fun:LLVMGetPointerToGlobal
}
{
   <insert_a_suppression_name_here>
   Memcheck:Leak
   match-leak-kinds: reachable
   fun:_Znwm
   obj:/usr/lib/x86_64-linux-gnu/libLLVM-9.so.1
   fun:__pthread_once_slow
   fun:_ZN4llvm30initializeMachinePipelinerPassERNS_12PassRegistryE
   fun:_ZN4llvm17initializeCodeGenERNS_12PassRegistryE
   fun:_ZN4llvm16TargetPassConfigC1ERNS_17LLVMTargetMachineERNS_6legacy15PassManagerBaseE
   fun:_ZN4llvm16X86TargetMachine16createPassConfigERNS_6legacy15PassManagerBaseE
   fun:_ZN4llvm17LLVMTargetMachine17addPassesToEmitMCERNS_6legacy15PassManagerBaseERPNS_9MCContextERNS_17raw_pwrite_streamEb
   fun:_ZN4llvm5MCJIT10emitObjectEPNS_6ModuleE
   fun:_ZN4llvm5MCJIT21generateCodeForModuleEPNS_6ModuleE
   fun:_ZN4llvm5MCJIT14finalizeObjectEv
   fun:LLVMGetPointerToGlobal
}
{
   <insert_a_suppression_name_here>
   Memcheck:Leak
   match-leak-kinds: reachable
   fun:_Znwm
   obj:/usr/lib/x86_64-linux-gnu/libLLVM-9.so.1
   fun:__pthread_once_slow
   fun:_ZN4llvm38initializeMachineDominanceFrontierPassERNS_12PassRegistryE
   obj:/usr/lib/x86_64-linux-gnu/libLLVM-9.so.1
   fun:__pthread_once_slow
   fun:_ZN4llvm35initializeMachineRegionInfoPassPassERNS_12PassRegistryE
   fun:_ZN4llvm17initializeCodeGenERNS_12PassRegistryE
   fun:_ZN4llvm16TargetPassConfigC1ERNS_17LLVMTargetMachineERNS_6legacy15PassManagerBaseE
   fun:_ZN4llvm16X86TargetMachine16createPassConfigERNS_6legacy15PassManagerBaseE
   fun:_ZN4llvm17LLVMTargetMachine17addPassesToEmitMCERNS_6legacy15PassManagerBaseERPNS_9MCContextERNS_17raw_pwrite_streamEb
   fun:_ZN4llvm5MCJIT10emitObjectEPNS_6ModuleE
}
{
   <insert_a_suppression_name_here>
   Memcheck:Leak
   match-leak-kinds: reachable
   fun:_Znwm
   obj:/usr/lib/x86_64-linux-gnu/libLLVM-9.so.1
   fun:__pthread_once_slow
   fun:_ZN4llvm35initializeMachineRegionInfoPassPassERNS_12PassRegistryE
   fun:_ZN4llvm17initializeCodeGenERNS_12PassRegistryE
   fun:_ZN4llvm16TargetPassConfigC1ERNS_17LLVMTargetMachineERNS_6legacy15PassManagerBaseE
   fun:_ZN4llvm16X86TargetMachine16createPassConfigERNS_6legacy15PassManagerBaseE
   fun:_ZN4llvm17LLVMTargetMachine17addPassesToEmitMCERNS_6legacy15PassManagerBaseERPNS_9MCContextERNS_17raw_pwrite_streamEb
   fun:_ZN4llvm5MCJIT10emitObjectEPNS_6ModuleE
   fun:_ZN4llvm5MCJIT21generateCodeForModuleEPNS_6ModuleE
   fun:_ZN4llvm5MCJIT14finalizeObjectEv
   fun:LLVMGetPointerToGlobal
}
{
   <insert_a_suppression_name_here>
   Memcheck:Leak
   match-leak-kinds: reachable
   fun:_Znwm
   obj:/usr/lib/x86_64-linux-gnu/libLLVM-9.so.1
   fun:__pthread_once_slow
   fun:_ZN4llvm30initializeMachineSchedulerPassERNS_12PassRegistryE
   fun:_ZN4llvm17initializeCodeGenERNS_12PassRegistryE
   fun:_ZN4llvm16TargetPassConfigC1ERNS_17LLVMTargetMachineERNS_6legacy15PassManagerBaseE
   fun:_ZN4llvm16X86TargetMachine16createPassConfigERNS_6legacy15PassManagerBaseE
   fun:_ZN4llvm17LLVMTargetMachine17addPassesToEmitMCERNS_6legacy15PassManagerBaseERPNS_9MCContextERNS_17raw_pwrite_streamEb
   fun:_ZN4llvm5MCJIT10emitObjectEPNS_6ModuleE
   fun:_ZN4llvm5MCJIT21generateCodeForModuleEPNS_6ModuleE
   fun:_ZN4llvm5MCJIT14finalizeObjectEv
   fun:LLVMGetPointerToGlobal
}
{
   <insert_a_suppression_name_here>
   Memcheck:Leak
   match-leak-kinds: reachable
   fun:_Znwm
   obj:/usr/lib/x86_64-linux-gnu/libLLVM-9.so.1
   fun:__pthread_once_slow
   fun:_ZN4llvm28initializeMachineSinkingPassERNS_12PassRegistryE
   fun:_ZN4llvm17initializeCodeGenERNS_12PassRegistryE
   fun:_ZN4llvm16TargetPassConfigC1ERNS_17LLVMTargetMachineERNS_6legacy15PassManagerBaseE
   fun:_ZN4llvm16X86TargetMachine16createPassConfigERNS_6legacy15PassManagerBaseE
   fun:_ZN4llvm17LLVMTargetMachine17addPassesToEmitMCERNS_6legacy15PassManagerBaseERPNS_9MCContextERNS_17raw_pwrite_streamEb
   fun:_ZN4llvm5MCJIT10emitObjectEPNS_6ModuleE
   fun:_ZN4llvm5MCJIT21generateCodeForModuleEPNS_6ModuleE
   fun:_ZN4llvm5MCJIT14finalizeObjectEv
   fun:LLVMGetPointerToGlobal
}
{
   <insert_a_suppression_name_here>
   Memcheck:Leak
   match-leak-kinds: reachable
   fun:_Znwm
   obj:/usr/lib/x86_64-linux-gnu/libLLVM-9.so.1
   fun:__pthread_once_slow
   fun:_ZN4llvm33initializeMachineVerifierPassPassERNS_12PassRegistryE
   fun:_ZN4llvm17initializeCodeGenERNS_12PassRegistryE
   fun:_ZN4llvm16TargetPassConfigC1ERNS_17LLVMTargetMachineERNS_6legacy15PassManagerBaseE
   fun:_ZN4llvm16X86TargetMachine16createPassConfigERNS_6legacy15PassManagerBaseE
   fun:_ZN4llvm17LLVMTargetMachine17addPassesToEmitMCERNS_6legacy15PassManagerBaseERPNS_9MCContextERNS_17raw_pwrite_streamEb
   fun:_ZN4llvm5MCJIT10emitObjectEPNS_6ModuleE
   fun:_ZN4llvm5MCJIT21generateCodeForModuleEPNS_6ModuleE
   fun:_ZN4llvm5MCJIT14finalizeObjectEv
   fun:LLVMGetPointerToGlobal
}
{
   <insert_a_suppression_name_here>
   Memcheck:Leak
   match-leak-kinds: reachable
   fun:_Znwm
   obj:/usr/lib/x86_64-linux-gnu/libLLVM-9.so.1
   fun:__pthread_once_slow
   fun:_ZN4llvm26initializeOptimizePHIsPassERNS_12PassRegistryE
   fun:_ZN4llvm17initializeCodeGenERNS_12PassRegistryE
   fun:_ZN4llvm16TargetPassConfigC1ERNS_17LLVMTargetMachineERNS_6legacy15PassManagerBaseE
   fun:_ZN4llvm16X86TargetMachine16createPassConfigERNS_6legacy15PassManagerBaseE
   fun:_ZN4llvm17LLVMTargetMachine17addPassesToEmitMCERNS_6legacy15PassManagerBaseERPNS_9MCContextERNS_17raw_pwrite_streamEb
   fun:_ZN4llvm5MCJIT10emitObjectEPNS_6ModuleE
   fun:_ZN4llvm5MCJIT21generateCodeForModuleEPNS_6ModuleE
   fun:_ZN4llvm5MCJIT14finalizeObjectEv
   fun:LLVMGetPointerToGlobal
}
{
   <insert_a_suppression_name_here>
   Memcheck:Leak
   match-leak-kinds: reachable
   fun:_Znwm
   obj:/usr/lib/x86_64-linux-gnu/libLLVM-9.so.1
   fun:__pthread_once_slow
   fun:_ZN4llvm17initializePEIPassERNS_12PassRegistryE
   fun:_ZN4llvm17initializeCodeGenERNS_12PassRegistryE
   fun:_ZN4llvm16TargetPassConfigC1ERNS_17LLVMTargetMachineERNS_6legacy15PassManagerBaseE
   fun:_ZN4llvm16X86TargetMachine16createPassConfigERNS_6legacy15PassManagerBaseE
   fun:_ZN4llvm17LLVMTargetMachine17addPassesToEmitMCERNS_6legacy15PassManagerBaseERPNS_9MCContextERNS_17raw_pwrite_streamEb
   fun:_ZN4llvm5MCJIT10emitObjectEPNS_6ModuleE
   fun:_ZN4llvm5MCJIT21generateCodeForModuleEPNS_6ModuleE
   fun:_ZN4llvm5MCJIT14finalizeObjectEv
   fun:LLVMGetPointerToGlobal
}
{
   <insert_a_suppression_name_here>
   Memcheck:Leak
   match-leak-kinds: reachable
   fun:_Znwm
   obj:/usr/lib/x86_64-linux-gnu/libLLVM-9.so.1
   fun:__pthread_once_slow
   fun:_ZN4llvm28initializePHIEliminationPassERNS_12PassRegistryE
   fun:_ZN4llvm17initializeCodeGenERNS_12PassRegistryE
   fun:_ZN4llvm16TargetPassConfigC1ERNS_17LLVMTargetMachineERNS_6legacy15PassManagerBaseE
   fun:_ZN4llvm16X86TargetMachine16createPassConfigERNS_6legacy15PassManagerBaseE
   fun:_ZN4llvm17LLVMTargetMachine17addPassesToEmitMCERNS_6legacy15PassManagerBaseERPNS_9MCContextERNS_17raw_pwrite_streamEb
   fun:_ZN4llvm5MCJIT10emitObjectEPNS_6ModuleE
   fun:_ZN4llvm5MCJIT21generateCodeForModuleEPNS_6ModuleE
   fun:_ZN4llvm5MCJIT14finalizeObjectEv
   fun:LLVMGetPointerToGlobal
}
{
   <insert_a_suppression_name_here>
   Memcheck:Leak
   match-leak-kinds: reachable
   fun:_Znwm
   obj:/usr/lib/x86_64-linux-gnu/libLLVM-9.so.1
   fun:__pthread_once_slow
   fun:_ZN4llvm31initializePatchableFunctionPassERNS_12PassRegistryE
   fun:_ZN4llvm17initializeCodeGenERNS_12PassRegistryE
   fun:_ZN4llvm16TargetPassConfigC1ERNS_17LLVMTargetMachineERNS_6legacy15PassManagerBaseE
   fun:_ZN4llvm16X86TargetMachine16createPassConfigERNS_6legacy15PassManagerBaseE
   fun:_ZN4llvm17LLVMTargetMachine17addPassesToEmitMCERNS_6legacy15PassManagerBaseERPNS_9MCContextERNS_17raw_pwrite_streamEb
   fun:_ZN4llvm5MCJIT10emitObjectEPNS_6ModuleE
   fun:_ZN4llvm5MCJIT21generateCodeForModuleEPNS_6ModuleE
   fun:_ZN4llvm5MCJIT14finalizeObjectEv
   fun:LLVMGetPointerToGlobal
}
{
   <insert_a_suppression_name_here>
   Memcheck:Leak
   match-leak-kinds: reachable
   fun:_Znwm
   obj:/usr/lib/x86_64-linux-gnu/libLLVM-9.so.1
   fun:__pthread_once_slow
   fun:_ZN4llvm31initializePeepholeOptimizerPassERNS_12PassRegistryE
   fun:_ZN4llvm17initializeCodeGenERNS_12PassRegistryE
   fun:_ZN4llvm16TargetPassConfigC1ERNS_17LLVMTargetMachineERNS_6legacy15PassManagerBaseE
   fun:_ZN4llvm16X86TargetMachine16createPassConfigERNS_6legacy15PassManagerBaseE
   fun:_ZN4llvm17LLVMTargetMachine17addPassesToEmitMCERNS_6legacy15PassManagerBaseERPNS_9MCContextERNS_17raw_pwrite_streamEb
   fun:_ZN4llvm5MCJIT10emitObjectEPNS_6ModuleE
   fun:_ZN4llvm5MCJIT21generateCodeForModuleEPNS_6ModuleE
   fun:_ZN4llvm5MCJIT14finalizeObjectEv
   fun:LLVMGetPointerToGlobal
}
{
   <insert_a_suppression_name_here>
   Memcheck:Leak
   match-leak-kinds: reachable
   fun:_Znwm
   obj:/usr/lib/x86_64-linux-gnu/libLLVM-9.so.1
   fun:__pthread_once_slow
   fun:_ZN4llvm34initializePostMachineSchedulerPassERNS_12PassRegistryE
   fun:_ZN4llvm17initializeCodeGenERNS_12PassRegistryE
   fun:_ZN4llvm16TargetPassConfigC1ERNS_17LLVMTargetMachineERNS_6legacy15PassManagerBaseE
   fun:_ZN4llvm16X86TargetMachine16createPassConfigERNS_6legacy15PassManagerBaseE
   fun:_ZN4llvm17LLVMTargetMachine17addPassesToEmitMCERNS_6legacy15PassManagerBaseERPNS_9MCContextERNS_17raw_pwrite_streamEb
   fun:_ZN4llvm5MCJIT10emitObjectEPNS_6ModuleE
   fun:_ZN4llvm5MCJIT21generateCodeForModuleEPNS_6ModuleE
   fun:_ZN4llvm5MCJIT14finalizeObjectEv
   fun:LLVMGetPointerToGlobal
}
{
   <insert_a_suppression_name_here>
   Memcheck:Leak
   match-leak-kinds: reachable
   fun:_Znwm
   obj:/usr/lib/x86_64-linux-gnu/libLLVM-9.so.1
   fun:__pthread_once_slow
   fun:_ZN4llvm36initializePostRAHazardRecognizerPassERNS_12PassRegistryE
   fun:_ZN4llvm17initializeCodeGenERNS_12PassRegistryE
   fun:_ZN4llvm16TargetPassConfigC1ERNS_17LLVMTargetMachineERNS_6legacy15PassManagerBaseE
   fun:_ZN4llvm16X86TargetMachine16createPassConfigERNS_6legacy15PassManagerBaseE
   fun:_ZN4llvm17LLVMTargetMachine17addPassesToEmitMCERNS_6legacy15PassManagerBaseERPNS_9MCContextERNS_17raw_pwrite_streamEb
   fun:_ZN4llvm5MCJIT10emitObjectEPNS_6ModuleE
   fun:_ZN4llvm5MCJIT21generateCodeForModuleEPNS_6ModuleE
   fun:_ZN4llvm5MCJIT14finalizeObjectEv
   fun:LLVMGetPointerToGlobal
}
{
   <insert_a_suppression_name_here>
   Memcheck:Leak
   match-leak-kinds: reachable
   fun:_Znwm
   obj:/usr/lib/x86_64-linux-gnu/libLLVM-9.so.1
   fun:__pthread_once_slow
   fun:_ZN4llvm34initializePostRAMachineSinkingPassERNS_12PassRegistryE
   fun:_ZN4llvm17initializeCodeGenERNS_12PassRegistryE
   fun:_ZN4llvm16TargetPassConfigC1ERNS_17LLVMTargetMachineERNS_6legacy15PassManagerBaseE
   fun:_ZN4llvm16X86TargetMachine16createPassConfigERNS_6legacy15PassManagerBaseE
   fun:_ZN4llvm17LLVMTargetMachine17addPassesToEmitMCERNS_6legacy15PassManagerBaseERPNS_9MCContextERNS_17raw_pwrite_streamEb
   fun:_ZN4llvm5MCJIT10emitObjectEPNS_6ModuleE
   fun:_ZN4llvm5MCJIT21generateCodeForModuleEPNS_6ModuleE
   fun:_ZN4llvm5MCJIT14finalizeObjectEv
   fun:LLVMGetPointerToGlobal
}
{
   <insert_a_suppression_name_here>
   Memcheck:Leak
   match-leak-kinds: reachable
   fun:_Znwm
   obj:/usr/lib/x86_64-linux-gnu/libLLVM-9.so.1
   fun:__pthread_once_slow
   fun:_ZN4llvm29initializePostRASchedulerPassERNS_12PassRegistryE
   fun:_ZN4llvm17initializeCodeGenERNS_12PassRegistryE
   fun:_ZN4llvm16TargetPassConfigC1ERNS_17LLVMTargetMachineERNS_6legacy15PassManagerBaseE
   fun:_ZN4llvm16X86TargetMachine16createPassConfigERNS_6legacy15PassManagerBaseE
   fun:_ZN4llvm17LLVMTargetMachine17addPassesToEmitMCERNS_6legacy15PassManagerBaseERPNS_9MCContextERNS_17raw_pwrite_streamEb
   fun:_ZN4llvm5MCJIT10emitObjectEPNS_6ModuleE
   fun:_ZN4llvm5MCJIT21generateCodeForModuleEPNS_6ModuleE
   fun:_ZN4llvm5MCJIT14finalizeObjectEv
   fun:LLVMGetPointerToGlobal
}
{
   <insert_a_suppression_name_here>
   Memcheck:Leak
   match-leak-kinds: reachable
   fun:_Znwm
   obj:/usr/lib/x86_64-linux-gnu/libLLVM-9.so.1
   fun:__pthread_once_slow
   fun:_ZN4llvm48initializePreISelIntrinsicLoweringLegacyPassPassERNS_12PassRegistryE
   fun:_ZN4llvm17initializeCodeGenERNS_12PassRegistryE
   fun:_ZN4llvm16TargetPassConfigC1ERNS_17LLVMTargetMachineERNS_6legacy15PassManagerBaseE
   fun:_ZN4llvm16X86TargetMachine16createPassConfigERNS_6legacy15PassManagerBaseE
   fun:_ZN4llvm17LLVMTargetMachine17addPassesToEmitMCERNS_6legacy15PassManagerBaseERPNS_9MCContextERNS_17raw_pwrite_streamEb
   fun:_ZN4llvm5MCJIT10emitObjectEPNS_6ModuleE
   fun:_ZN4llvm5MCJIT21generateCodeForModuleEPNS_6ModuleE
   fun:_ZN4llvm5MCJIT14finalizeObjectEv
   fun:LLVMGetPointerToGlobal
}
{
   <insert_a_suppression_name_here>
   Memcheck:Leak
   match-leak-kinds: reachable
   fun:_Znwm
   obj:/usr/lib/x86_64-linux-gnu/libLLVM-9.so.1
   fun:__pthread_once_slow
   fun:_ZN4llvm33initializeProcessImplicitDefsPassERNS_12PassRegistryE
   fun:_ZN4llvm17initializeCodeGenERNS_12PassRegistryE
   fun:_ZN4llvm16TargetPassConfigC1ERNS_17LLVMTargetMachineERNS_6legacy15PassManagerBaseE
   fun:_ZN4llvm16X86TargetMachine16createPassConfigERNS_6legacy15PassManagerBaseE
   fun:_ZN4llvm17LLVMTargetMachine17addPassesToEmitMCERNS_6legacy15PassManagerBaseERPNS_9MCContextERNS_17raw_pwrite_streamEb
   fun:_ZN4llvm5MCJIT10emitObjectEPNS_6ModuleE
   fun:_ZN4llvm5MCJIT21generateCodeForModuleEPNS_6ModuleE
   fun:_ZN4llvm5MCJIT14finalizeObjectEv
   fun:LLVMGetPointerToGlobal
}
{
   <insert_a_suppression_name_here>
   Memcheck:Leak
   match-leak-kinds: reachable
   fun:_Znwm
   obj:/usr/lib/x86_64-linux-gnu/libLLVM-9.so.1
   fun:__pthread_once_slow
   fun:_ZN4llvm31initializeRegisterCoalescerPassERNS_12PassRegistryE
   obj:/usr/lib/x86_64-linux-gnu/libLLVM-9.so.1
   fun:__pthread_once_slow
   fun:_ZN4llvm21initializeRABasicPassERNS_12PassRegistryE
   fun:_ZN4llvm17initializeCodeGenERNS_12PassRegistryE
   fun:_ZN4llvm16TargetPassConfigC1ERNS_17LLVMTargetMachineERNS_6legacy15PassManagerBaseE
   fun:_ZN4llvm16X86TargetMachine16createPassConfigERNS_6legacy15PassManagerBaseE
   fun:_ZN4llvm17LLVMTargetMachine17addPassesToEmitMCERNS_6legacy15PassManagerBaseERPNS_9MCContextERNS_17raw_pwrite_streamEb
   fun:_ZN4llvm5MCJIT10emitObjectEPNS_6ModuleE
}
{
   <insert_a_suppression_name_here>
   Memcheck:Leak
   match-leak-kinds: reachable
   fun:_Znwm
   obj:/usr/lib/x86_64-linux-gnu/libLLVM-9.so.1
   fun:__pthread_once_slow
   fun:_ZN4llvm24initializeVirtRegMapPassERNS_12PassRegistryE
   obj:/usr/lib/x86_64-linux-gnu/libLLVM-9.so.1
   fun:__pthread_once_slow
   fun:_ZN4llvm21initializeRABasicPassERNS_12PassRegistryE
   fun:_ZN4llvm17initializeCodeGenERNS_12PassRegistryE
   fun:_ZN4llvm16TargetPassConfigC1ERNS_17LLVMTargetMachineERNS_6legacy15PassManagerBaseE
   fun:_ZN4llvm16X86TargetMachine16createPassConfigERNS_6legacy15PassManagerBaseE
   fun:_ZN4llvm17LLVMTargetMachine17addPassesToEmitMCERNS_6legacy15PassManagerBaseERPNS_9MCContextERNS_17raw_pwrite_streamEb
   fun:_ZN4llvm5MCJIT10emitObjectEPNS_6ModuleE
}
{
   <insert_a_suppression_name_here>
   Memcheck:Leak
   match-leak-kinds: reachable
   fun:_Znwm
   obj:/usr/lib/x86_64-linux-gnu/libLLVM-9.so.1
   fun:__pthread_once_slow
   fun:_ZN4llvm27initializeLiveRegMatrixPassERNS_12PassRegistryE
   obj:/usr/lib/x86_64-linux-gnu/libLLVM-9.so.1
   fun:__pthread_once_slow
   fun:_ZN4llvm21initializeRABasicPassERNS_12PassRegistryE
   fun:_ZN4llvm17initializeCodeGenERNS_12PassRegistryE
   fun:_ZN4llvm16TargetPassConfigC1ERNS_17LLVMTargetMachineERNS_6legacy15PassManagerBaseE
   fun:_ZN4llvm16X86TargetMachine16createPassConfigERNS_6legacy15PassManagerBaseE
   fun:_ZN4llvm17LLVMTargetMachine17addPassesToEmitMCERNS_6legacy15PassManagerBaseERPNS_9MCContextERNS_17raw_pwrite_streamEb
   fun:_ZN4llvm5MCJIT10emitObjectEPNS_6ModuleE
}
{
   <insert_a_suppression_name_here>
   Memcheck:Leak
   match-leak-kinds: reachable
   fun:_Znwm
   obj:/usr/lib/x86_64-linux-gnu/libLLVM-9.so.1
   fun:__pthread_once_slow
   fun:_ZN4llvm21initializeRABasicPassERNS_12PassRegistryE
   fun:_ZN4llvm17initializeCodeGenERNS_12PassRegistryE
   fun:_ZN4llvm16TargetPassConfigC1ERNS_17LLVMTargetMachineERNS_6legacy15PassManagerBaseE
   fun:_ZN4llvm16X86TargetMachine16createPassConfigERNS_6legacy15PassManagerBaseE
   fun:_ZN4llvm17LLVMTargetMachine17addPassesToEmitMCERNS_6legacy15PassManagerBaseERPNS_9MCContextERNS_17raw_pwrite_streamEb
   fun:_ZN4llvm5MCJIT10emitObjectEPNS_6ModuleE
   fun:_ZN4llvm5MCJIT21generateCodeForModuleEPNS_6ModuleE
   fun:_ZN4llvm5MCJIT14finalizeObjectEv
   fun:LLVMGetPointerToGlobal
}
{
   <insert_a_suppression_name_here>
   Memcheck:Leak
   match-leak-kinds: reachable
   fun:_Znwm
   obj:/usr/lib/x86_64-linux-gnu/libLLVM-9.so.1
   fun:__pthread_once_slow
   fun:_ZN4llvm28initializeSpillPlacementPassERNS_12PassRegistryE
   obj:/usr/lib/x86_64-linux-gnu/libLLVM-9.so.1
   fun:__pthread_once_slow
   fun:_ZN4llvm22initializeRAGreedyPassERNS_12PassRegistryE
   fun:_ZN4llvm17initializeCodeGenERNS_12PassRegistryE
   fun:_ZN4llvm16TargetPassConfigC1ERNS_17LLVMTargetMachineERNS_6legacy15PassManagerBaseE
   fun:_ZN4llvm16X86TargetMachine16createPassConfigERNS_6legacy15PassManagerBaseE
   fun:_ZN4llvm17LLVMTargetMachine17addPassesToEmitMCERNS_6legacy15PassManagerBaseERPNS_9MCContextERNS_17raw_pwrite_streamEb
   fun:_ZN4llvm5MCJIT10emitObjectEPNS_6ModuleE
}
{
   <insert_a_suppression_name_here>
   Memcheck:Leak
   match-leak-kinds: reachable
   fun:_Znwm
   obj:/usr/lib/x86_64-linux-gnu/libLLVM-9.so.1
   fun:__pthread_once_slow
   fun:_ZN4llvm22initializeRAGreedyPassERNS_12PassRegistryE
   fun:_ZN4llvm17initializeCodeGenERNS_12PassRegistryE
   fun:_ZN4llvm16TargetPassConfigC1ERNS_17LLVMTargetMachineERNS_6legacy15PassManagerBaseE
   fun:_ZN4llvm16X86TargetMachine16createPassConfigERNS_6legacy15PassManagerBaseE
   fun:_ZN4llvm17LLVMTargetMachine17addPassesToEmitMCERNS_6legacy15PassManagerBaseERPNS_9MCContextERNS_17raw_pwrite_streamEb
   fun:_ZN4llvm5MCJIT10emitObjectEPNS_6ModuleE
   fun:_ZN4llvm5MCJIT21generateCodeForModuleEPNS_6ModuleE
   fun:_ZN4llvm5MCJIT14finalizeObjectEv
   fun:LLVMGetPointerToGlobal
}
{
   <insert_a_suppression_name_here>
   Memcheck:Leak
   match-leak-kinds: reachable
   fun:_Znwm
   obj:/usr/lib/x86_64-linux-gnu/libLLVM-9.so.1
   fun:__pthread_once_slow
   fun:_ZN4llvm26initializeRegAllocFastPassERNS_12PassRegistryE
   fun:_ZN4llvm17initializeCodeGenERNS_12PassRegistryE
   fun:_ZN4llvm16TargetPassConfigC1ERNS_17LLVMTargetMachineERNS_6legacy15PassManagerBaseE
   fun:_ZN4llvm16X86TargetMachine16createPassConfigERNS_6legacy15PassManagerBaseE
   fun:_ZN4llvm17LLVMTargetMachine17addPassesToEmitMCERNS_6legacy15PassManagerBaseERPNS_9MCContextERNS_17raw_pwrite_streamEb
   fun:_ZN4llvm5MCJIT10emitObjectEPNS_6ModuleE
   fun:_ZN4llvm5MCJIT21generateCodeForModuleEPNS_6ModuleE
   fun:_ZN4llvm5MCJIT14finalizeObjectEv
   fun:LLVMGetPointerToGlobal
}
{
   <insert_a_suppression_name_here>
   Memcheck:Leak
   match-leak-kinds: reachable
   fun:_Znwm
   obj:/usr/lib/x86_64-linux-gnu/libLLVM-9.so.1
   fun:__pthread_once_slow
   fun:_ZN4llvm39initializePhysicalRegisterUsageInfoPassERNS_12PassRegistryE
   obj:/usr/lib/x86_64-linux-gnu/libLLVM-9.so.1
   fun:__pthread_once_slow
   fun:_ZN4llvm35initializeRegUsageInfoCollectorPassERNS_12PassRegistryE
   fun:_ZN4llvm17initializeCodeGenERNS_12PassRegistryE
   fun:_ZN4llvm16TargetPassConfigC1ERNS_17LLVMTargetMachineERNS_6legacy15PassManagerBaseE
   fun:_ZN4llvm16X86TargetMachine16createPassConfigERNS_6legacy15PassManagerBaseE
   fun:_ZN4llvm17LLVMTargetMachine17addPassesToEmitMCERNS_6legacy15PassManagerBaseERPNS_9MCContextERNS_17raw_pwrite_streamEb
   fun:_ZN4llvm5MCJIT10emitObjectEPNS_6ModuleE
}
{
   <insert_a_suppression_name_here>
   Memcheck:Leak
   match-leak-kinds: reachable
   fun:_Znwm
   obj:/usr/lib/x86_64-linux-gnu/libLLVM-9.so.1
   fun:__pthread_once_slow
   fun:_ZN4llvm35initializeRegUsageInfoCollectorPassERNS_12PassRegistryE
   fun:_ZN4llvm17initializeCodeGenERNS_12PassRegistryE
   fun:_ZN4llvm16TargetPassConfigC1ERNS_17LLVMTargetMachineERNS_6legacy15PassManagerBaseE
   fun:_ZN4llvm16X86TargetMachine16createPassConfigERNS_6legacy15PassManagerBaseE
   fun:_ZN4llvm17LLVMTargetMachine17addPassesToEmitMCERNS_6legacy15PassManagerBaseERPNS_9MCContextERNS_17raw_pwrite_streamEb
   fun:_ZN4llvm5MCJIT10emitObjectEPNS_6ModuleE
   fun:_ZN4llvm5MCJIT21generateCodeForModuleEPNS_6ModuleE
   fun:_ZN4llvm5MCJIT14finalizeObjectEv
   fun:LLVMGetPointerToGlobal
}
{
   <insert_a_suppression_name_here>
   Memcheck:Leak
   match-leak-kinds: reachable
   fun:_Znwm
   obj:/usr/lib/x86_64-linux-gnu/libLLVM-9.so.1
   fun:__pthread_once_slow
   fun:_ZN4llvm37initializeRegUsageInfoPropagationPassERNS_12PassRegistryE
   fun:_ZN4llvm17initializeCodeGenERNS_12PassRegistryE
   fun:_ZN4llvm16TargetPassConfigC1ERNS_17LLVMTargetMachineERNS_6legacy15PassManagerBaseE
   fun:_ZN4llvm16X86TargetMachine16createPassConfigERNS_6legacy15PassManagerBaseE
   fun:_ZN4llvm17LLVMTargetMachine17addPassesToEmitMCERNS_6legacy15PassManagerBaseERPNS_9MCContextERNS_17raw_pwrite_streamEb
   fun:_ZN4llvm5MCJIT10emitObjectEPNS_6ModuleE
   fun:_ZN4llvm5MCJIT21generateCodeForModuleEPNS_6ModuleE
   fun:_ZN4llvm5MCJIT14finalizeObjectEv
   fun:LLVMGetPointerToGlobal
}
{
   <insert_a_suppression_name_here>
   Memcheck:Leak
   match-leak-kinds: reachable
   fun:_Znwm
   obj:/usr/lib/x86_64-linux-gnu/libLLVM-9.so.1
   fun:__pthread_once_slow
   fun:_ZN4llvm38initializeRenameIndependentSubregsPassERNS_12PassRegistryE
   fun:_ZN4llvm17initializeCodeGenERNS_12PassRegistryE
   fun:_ZN4llvm16TargetPassConfigC1ERNS_17LLVMTargetMachineERNS_6legacy15PassManagerBaseE
   fun:_ZN4llvm16X86TargetMachine16createPassConfigERNS_6legacy15PassManagerBaseE
   fun:_ZN4llvm17LLVMTargetMachine17addPassesToEmitMCERNS_6legacy15PassManagerBaseERPNS_9MCContextERNS_17raw_pwrite_streamEb
   fun:_ZN4llvm5MCJIT10emitObjectEPNS_6ModuleE
   fun:_ZN4llvm5MCJIT21generateCodeForModuleEPNS_6ModuleE
   fun:_ZN4llvm5MCJIT14finalizeObjectEv
   fun:LLVMGetPointerToGlobal
}
{
   <insert_a_suppression_name_here>
   Memcheck:Leak
   match-leak-kinds: reachable
   fun:_Znwm
   obj:/usr/lib/x86_64-linux-gnu/libLLVM-9.so.1
   fun:__pthread_once_slow
   fun:_ZN4llvm33initializeSafeStackLegacyPassPassERNS_12PassRegistryE
   fun:_ZN4llvm17initializeCodeGenERNS_12PassRegistryE
   fun:_ZN4llvm16TargetPassConfigC1ERNS_17LLVMTargetMachineERNS_6legacy15PassManagerBaseE
   fun:_ZN4llvm16X86TargetMachine16createPassConfigERNS_6legacy15PassManagerBaseE
   fun:_ZN4llvm17LLVMTargetMachine17addPassesToEmitMCERNS_6legacy15PassManagerBaseERPNS_9MCContextERNS_17raw_pwrite_streamEb
   fun:_ZN4llvm5MCJIT10emitObjectEPNS_6ModuleE
   fun:_ZN4llvm5MCJIT21generateCodeForModuleEPNS_6ModuleE
   fun:_ZN4llvm5MCJIT14finalizeObjectEv
   fun:LLVMGetPointerToGlobal
}
{
   <insert_a_suppression_name_here>
   Memcheck:Leak
   match-leak-kinds: reachable
   fun:_Znwm
   obj:/usr/lib/x86_64-linux-gnu/libLLVM-9.so.1
   fun:__pthread_once_slow
   fun:_ZN4llvm38initializeScalarizeMaskedMemIntrinPassERNS_12PassRegistryE
   fun:_ZN4llvm17initializeCodeGenERNS_12PassRegistryE
   fun:_ZN4llvm16TargetPassConfigC1ERNS_17LLVMTargetMachineERNS_6legacy15PassManagerBaseE
   fun:_ZN4llvm16X86TargetMachine16createPassConfigERNS_6legacy15PassManagerBaseE
   fun:_ZN4llvm17LLVMTargetMachine17addPassesToEmitMCERNS_6legacy15PassManagerBaseERPNS_9MCContextERNS_17raw_pwrite_streamEb
   fun:_ZN4llvm5MCJIT10emitObjectEPNS_6ModuleE
   fun:_ZN4llvm5MCJIT21generateCodeForModuleEPNS_6ModuleE
   fun:_ZN4llvm5MCJIT14finalizeObjectEv
   fun:LLVMGetPointerToGlobal
}
{
   <insert_a_suppression_name_here>
   Memcheck:Leak
   match-leak-kinds: reachable
   fun:_Znwm
   obj:/usr/lib/x86_64-linux-gnu/libLLVM-9.so.1
   fun:__pthread_once_slow
   fun:_ZN4llvm24initializeShrinkWrapPassERNS_12PassRegistryE
   fun:_ZN4llvm17initializeCodeGenERNS_12PassRegistryE
   fun:_ZN4llvm16TargetPassConfigC1ERNS_17LLVMTargetMachineERNS_6legacy15PassManagerBaseE
   fun:_ZN4llvm16X86TargetMachine16createPassConfigERNS_6legacy15PassManagerBaseE
   fun:_ZN4llvm17LLVMTargetMachine17addPassesToEmitMCERNS_6legacy15PassManagerBaseERPNS_9MCContextERNS_17raw_pwrite_streamEb
   fun:_ZN4llvm5MCJIT10emitObjectEPNS_6ModuleE
   fun:_ZN4llvm5MCJIT21generateCodeForModuleEPNS_6ModuleE
   fun:_ZN4llvm5MCJIT14finalizeObjectEv
   fun:LLVMGetPointerToGlobal
}
{
   <insert_a_suppression_name_here>
   Memcheck:Leak
   match-leak-kinds: reachable
   fun:_Znwm
   obj:/usr/lib/x86_64-linux-gnu/libLLVM-9.so.1
   fun:__pthread_once_slow
   fun:_ZN4llvm27initializeStackColoringPassERNS_12PassRegistryE
   fun:_ZN4llvm17initializeCodeGenERNS_12PassRegistryE
   fun:_ZN4llvm16TargetPassConfigC1ERNS_17LLVMTargetMachineERNS_6legacy15PassManagerBaseE
   fun:_ZN4llvm16X86TargetMachine16createPassConfigERNS_6legacy15PassManagerBaseE
   fun:_ZN4llvm17LLVMTargetMachine17addPassesToEmitMCERNS_6legacy15PassManagerBaseERPNS_9MCContextERNS_17raw_pwrite_streamEb
   fun:_ZN4llvm5MCJIT10emitObjectEPNS_6ModuleE
   fun:_ZN4llvm5MCJIT21generateCodeForModuleEPNS_6ModuleE
   fun:_ZN4llvm5MCJIT14finalizeObjectEv
   fun:LLVMGetPointerToGlobal
}
{
   <insert_a_suppression_name_here>
   Memcheck:Leak
   match-leak-kinds: reachable
   fun:_Znwm
   obj:/usr/lib/x86_64-linux-gnu/libLLVM-9.so.1
   fun:__pthread_once_slow
   fun:_ZN4llvm30initializeStackMapLivenessPassERNS_12PassRegistryE
   fun:_ZN4llvm17initializeCodeGenERNS_12PassRegistryE
   fun:_ZN4llvm16TargetPassConfigC1ERNS_17LLVMTargetMachineERNS_6legacy15PassManagerBaseE
   fun:_ZN4llvm16X86TargetMachine16createPassConfigERNS_6legacy15PassManagerBaseE
   fun:_ZN4llvm17LLVMTargetMachine17addPassesToEmitMCERNS_6legacy15PassManagerBaseERPNS_9MCContextERNS_17raw_pwrite_streamEb
   fun:_ZN4llvm5MCJIT10emitObjectEPNS_6ModuleE
   fun:_ZN4llvm5MCJIT21generateCodeForModuleEPNS_6ModuleE
   fun:_ZN4llvm5MCJIT14finalizeObjectEv
   fun:LLVMGetPointerToGlobal
}
{
   <insert_a_suppression_name_here>
   Memcheck:Leak
   match-leak-kinds: reachable
   fun:_Znwm
   obj:/usr/lib/x86_64-linux-gnu/libLLVM-9.so.1
   fun:__pthread_once_slow
   fun:_ZN4llvm28initializeStackProtectorPassERNS_12PassRegistryE
   fun:_ZN4llvm17initializeCodeGenERNS_12PassRegistryE
   fun:_ZN4llvm16TargetPassConfigC1ERNS_17LLVMTargetMachineERNS_6legacy15PassManagerBaseE
   fun:_ZN4llvm16X86TargetMachine16createPassConfigERNS_6legacy15PassManagerBaseE
   fun:_ZN4llvm17LLVMTargetMachine17addPassesToEmitMCERNS_6legacy15PassManagerBaseERPNS_9MCContextERNS_17raw_pwrite_streamEb
   fun:_ZN4llvm5MCJIT10emitObjectEPNS_6ModuleE
   fun:_ZN4llvm5MCJIT21generateCodeForModuleEPNS_6ModuleE
   fun:_ZN4llvm5MCJIT14finalizeObjectEv
   fun:LLVMGetPointerToGlobal
}
{
   <insert_a_suppression_name_here>
   Memcheck:Leak
   match-leak-kinds: reachable
   fun:_Znwm
   obj:/usr/lib/x86_64-linux-gnu/libLLVM-9.so.1
   fun:__pthread_once_slow
   fun:_ZN4llvm31initializeStackSlotColoringPassERNS_12PassRegistryE
   fun:_ZN4llvm17initializeCodeGenERNS_12PassRegistryE
   fun:_ZN4llvm16TargetPassConfigC1ERNS_17LLVMTargetMachineERNS_6legacy15PassManagerBaseE
   fun:_ZN4llvm16X86TargetMachine16createPassConfigERNS_6legacy15PassManagerBaseE
   fun:_ZN4llvm17LLVMTargetMachine17addPassesToEmitMCERNS_6legacy15PassManagerBaseERPNS_9MCContextERNS_17raw_pwrite_streamEb
   fun:_ZN4llvm5MCJIT10emitObjectEPNS_6ModuleE
   fun:_ZN4llvm5MCJIT21generateCodeForModuleEPNS_6ModuleE
   fun:_ZN4llvm5MCJIT14finalizeObjectEv
   fun:LLVMGetPointerToGlobal
}
{
   <insert_a_suppression_name_here>
   Memcheck:Leak
   match-leak-kinds: reachable
   fun:_Znwm
   obj:/usr/lib/x86_64-linux-gnu/libLLVM-9.so.1
   fun:__pthread_once_slow
   fun:_ZN4llvm27initializeTailDuplicatePassERNS_12PassRegistryE
   fun:_ZN4llvm17initializeCodeGenERNS_12PassRegistryE
   fun:_ZN4llvm16TargetPassConfigC1ERNS_17LLVMTargetMachineERNS_6legacy15PassManagerBaseE
   fun:_ZN4llvm16X86TargetMachine16createPassConfigERNS_6legacy15PassManagerBaseE
   fun:_ZN4llvm17LLVMTargetMachine17addPassesToEmitMCERNS_6legacy15PassManagerBaseERPNS_9MCContextERNS_17raw_pwrite_streamEb
   fun:_ZN4llvm5MCJIT10emitObjectEPNS_6ModuleE
   fun:_ZN4llvm5MCJIT21generateCodeForModuleEPNS_6ModuleE
   fun:_ZN4llvm5MCJIT14finalizeObjectEv
   fun:LLVMGetPointerToGlobal
}
{
   <insert_a_suppression_name_here>
   Memcheck:Leak
   match-leak-kinds: reachable
   fun:_Znwm
   obj:/usr/lib/x86_64-linux-gnu/libLLVM-9.so.1
   fun:__pthread_once_slow
   fun:_ZN4llvm39initializeTwoAddressInstructionPassPassERNS_12PassRegistryE
   fun:_ZN4llvm17initializeCodeGenERNS_12PassRegistryE
   fun:_ZN4llvm16TargetPassConfigC1ERNS_17LLVMTargetMachineERNS_6legacy15PassManagerBaseE
   fun:_ZN4llvm16X86TargetMachine16createPassConfigERNS_6legacy15PassManagerBaseE
   fun:_ZN4llvm17LLVMTargetMachine17addPassesToEmitMCERNS_6legacy15PassManagerBaseERPNS_9MCContextERNS_17raw_pwrite_streamEb
   fun:_ZN4llvm5MCJIT10emitObjectEPNS_6ModuleE
   fun:_ZN4llvm5MCJIT21generateCodeForModuleEPNS_6ModuleE
   fun:_ZN4llvm5MCJIT14finalizeObjectEv
   fun:LLVMGetPointerToGlobal
}
{
   <insert_a_suppression_name_here>
   Memcheck:Leak
   match-leak-kinds: reachable
   fun:_Znwm
   obj:/usr/lib/x86_64-linux-gnu/libLLVM-9.so.1
   fun:__pthread_once_slow
   fun:_ZN4llvm34initializeUnpackMachineBundlesPassERNS_12PassRegistryE
   fun:_ZN4llvm17initializeCodeGenERNS_12PassRegistryE
   fun:_ZN4llvm16TargetPassConfigC1ERNS_17LLVMTargetMachineERNS_6legacy15PassManagerBaseE
   fun:_ZN4llvm16X86TargetMachine16createPassConfigERNS_6legacy15PassManagerBaseE
   fun:_ZN4llvm17LLVMTargetMachine17addPassesToEmitMCERNS_6legacy15PassManagerBaseERPNS_9MCContextERNS_17raw_pwrite_streamEb
   fun:_ZN4llvm5MCJIT10emitObjectEPNS_6ModuleE
   fun:_ZN4llvm5MCJIT21generateCodeForModuleEPNS_6ModuleE
   fun:_ZN4llvm5MCJIT14finalizeObjectEv
   fun:LLVMGetPointerToGlobal
}
{
   <insert_a_suppression_name_here>
   Memcheck:Leak
   match-leak-kinds: reachable
   fun:_Znwm
   obj:/usr/lib/x86_64-linux-gnu/libLLVM-9.so.1
   fun:__pthread_once_slow
   fun:_ZN4llvm44initializeUnreachableBlockElimLegacyPassPassERNS_12PassRegistryE
   fun:_ZN4llvm17initializeCodeGenERNS_12PassRegistryE
   fun:_ZN4llvm16TargetPassConfigC1ERNS_17LLVMTargetMachineERNS_6legacy15PassManagerBaseE
   fun:_ZN4llvm16X86TargetMachine16createPassConfigERNS_6legacy15PassManagerBaseE
   fun:_ZN4llvm17LLVMTargetMachine17addPassesToEmitMCERNS_6legacy15PassManagerBaseERPNS_9MCContextERNS_17raw_pwrite_streamEb
   fun:_ZN4llvm5MCJIT10emitObjectEPNS_6ModuleE
   fun:_ZN4llvm5MCJIT21generateCodeForModuleEPNS_6ModuleE
   fun:_ZN4llvm5MCJIT14finalizeObjectEv
   fun:LLVMGetPointerToGlobal
}
{
   <insert_a_suppression_name_here>
   Memcheck:Leak
   match-leak-kinds: reachable
   fun:_Znwm
   obj:/usr/lib/x86_64-linux-gnu/libLLVM-9.so.1
   fun:__pthread_once_slow
   fun:_ZN4llvm29initializeVirtRegRewriterPassERNS_12PassRegistryE
   fun:_ZN4llvm17initializeCodeGenERNS_12PassRegistryE
   fun:_ZN4llvm16TargetPassConfigC1ERNS_17LLVMTargetMachineERNS_6legacy15PassManagerBaseE
   fun:_ZN4llvm16X86TargetMachine16createPassConfigERNS_6legacy15PassManagerBaseE
   fun:_ZN4llvm17LLVMTargetMachine17addPassesToEmitMCERNS_6legacy15PassManagerBaseERPNS_9MCContextERNS_17raw_pwrite_streamEb
   fun:_ZN4llvm5MCJIT10emitObjectEPNS_6ModuleE
   fun:_ZN4llvm5MCJIT21generateCodeForModuleEPNS_6ModuleE
   fun:_ZN4llvm5MCJIT14finalizeObjectEv
   fun:LLVMGetPointerToGlobal
}
{
   <insert_a_suppression_name_here>
   Memcheck:Leak
   match-leak-kinds: reachable
   fun:_Znwm
   obj:/usr/lib/x86_64-linux-gnu/libLLVM-9.so.1
   fun:__pthread_once_slow
   fun:_ZN4llvm27initializeWasmEHPreparePassERNS_12PassRegistryE
   fun:_ZN4llvm17initializeCodeGenERNS_12PassRegistryE
   fun:_ZN4llvm16TargetPassConfigC1ERNS_17LLVMTargetMachineERNS_6legacy15PassManagerBaseE
   fun:_ZN4llvm16X86TargetMachine16createPassConfigERNS_6legacy15PassManagerBaseE
   fun:_ZN4llvm17LLVMTargetMachine17addPassesToEmitMCERNS_6legacy15PassManagerBaseERPNS_9MCContextERNS_17raw_pwrite_streamEb
   fun:_ZN4llvm5MCJIT10emitObjectEPNS_6ModuleE
   fun:_ZN4llvm5MCJIT21generateCodeForModuleEPNS_6ModuleE
   fun:_ZN4llvm5MCJIT14finalizeObjectEv
   fun:LLVMGetPointerToGlobal
}
{
   <insert_a_suppression_name_here>
   Memcheck:Leak
   match-leak-kinds: reachable
   fun:_Znwm
   obj:/usr/lib/x86_64-linux-gnu/libLLVM-9.so.1
   fun:__pthread_once_slow
   fun:_ZN4llvm26initializeWinEHPreparePassERNS_12PassRegistryE
   fun:_ZN4llvm17initializeCodeGenERNS_12PassRegistryE
   fun:_ZN4llvm16TargetPassConfigC1ERNS_17LLVMTargetMachineERNS_6legacy15PassManagerBaseE
   fun:_ZN4llvm16X86TargetMachine16createPassConfigERNS_6legacy15PassManagerBaseE
   fun:_ZN4llvm17LLVMTargetMachine17addPassesToEmitMCERNS_6legacy15PassManagerBaseERPNS_9MCContextERNS_17raw_pwrite_streamEb
   fun:_ZN4llvm5MCJIT10emitObjectEPNS_6ModuleE
   fun:_ZN4llvm5MCJIT21generateCodeForModuleEPNS_6ModuleE
   fun:_ZN4llvm5MCJIT14finalizeObjectEv
   fun:LLVMGetPointerToGlobal
}
{
   <insert_a_suppression_name_here>
   Memcheck:Leak
   match-leak-kinds: reachable
   fun:_Znwm
   obj:/usr/lib/x86_64-linux-gnu/libLLVM-9.so.1
   fun:__pthread_once_slow
   fun:_ZN4llvm33initializeXRayInstrumentationPassERNS_12PassRegistryE
   fun:_ZN4llvm16TargetPassConfigC1ERNS_17LLVMTargetMachineERNS_6legacy15PassManagerBaseE
   fun:_ZN4llvm16X86TargetMachine16createPassConfigERNS_6legacy15PassManagerBaseE
   fun:_ZN4llvm17LLVMTargetMachine17addPassesToEmitMCERNS_6legacy15PassManagerBaseERPNS_9MCContextERNS_17raw_pwrite_streamEb
   fun:_ZN4llvm5MCJIT10emitObjectEPNS_6ModuleE
   fun:_ZN4llvm5MCJIT21generateCodeForModuleEPNS_6ModuleE
   fun:_ZN4llvm5MCJIT14finalizeObjectEv
   fun:LLVMGetPointerToGlobal
   obj:*
}
{
   <insert_a_suppression_name_here>
   Memcheck:Leak
   match-leak-kinds: reachable
   fun:_Znwm
   obj:/usr/lib/x86_64-linux-gnu/libLLVM-9.so.1
   fun:__pthread_once_slow
   fun:_ZN4llvm21createLowerEmuTLSPassEv
   fun:_ZN4llvm16TargetPassConfig13addISelPassesEv
   fun:_ZN4llvm17LLVMTargetMachine17addPassesToEmitMCERNS_6legacy15PassManagerBaseERPNS_9MCContextERNS_17raw_pwrite_streamEb
   fun:_ZN4llvm5MCJIT10emitObjectEPNS_6ModuleE
   fun:_ZN4llvm5MCJIT21generateCodeForModuleEPNS_6ModuleE
   fun:_ZN4llvm5MCJIT14finalizeObjectEv
   fun:LLVMGetPointerToGlobal
   obj:*
   obj:*
}
{
   <insert_a_suppression_name_here>
   Memcheck:Leak
   match-leak-kinds: reachable
   fun:_Znwm
   obj:/usr/lib/x86_64-linux-gnu/libLLVM-9.so.1
   fun:__pthread_once_slow
   fun:_ZN4llvm32initializeIVUsersWrapperPassPassERNS_12PassRegistryE
   obj:/usr/lib/x86_64-linux-gnu/libLLVM-9.so.1
   fun:__pthread_once_slow
   fun:_ZN4llvm28createLoopStrengthReducePassEv
   fun:_ZN4llvm16TargetPassConfig11addIRPassesEv
   obj:/usr/lib/x86_64-linux-gnu/libLLVM-9.so.1
   fun:_ZN4llvm16TargetPassConfig13addISelPassesEv
   fun:_ZN4llvm17LLVMTargetMachine17addPassesToEmitMCERNS_6legacy15PassManagerBaseERPNS_9MCContextERNS_17raw_pwrite_streamEb
   fun:_ZN4llvm5MCJIT10emitObjectEPNS_6ModuleE
}
{
   <insert_a_suppression_name_here>
   Memcheck:Leak
   match-leak-kinds: reachable
   fun:_Znwm
   obj:/usr/lib/x86_64-linux-gnu/libLLVM-9.so.1
   fun:__pthread_once_slow
   fun:_ZN4llvm26initializeLoopSimplifyPassERNS_12PassRegistryE
   obj:/usr/lib/x86_64-linux-gnu/libLLVM-9.so.1
   fun:__pthread_once_slow
   fun:_ZN4llvm28createLoopStrengthReducePassEv
   fun:_ZN4llvm16TargetPassConfig11addIRPassesEv
   obj:/usr/lib/x86_64-linux-gnu/libLLVM-9.so.1
   fun:_ZN4llvm16TargetPassConfig13addISelPassesEv
   fun:_ZN4llvm17LLVMTargetMachine17addPassesToEmitMCERNS_6legacy15PassManagerBaseERPNS_9MCContextERNS_17raw_pwrite_streamEb
   fun:_ZN4llvm5MCJIT10emitObjectEPNS_6ModuleE
}
{
   <insert_a_suppression_name_here>
   Memcheck:Leak
   match-leak-kinds: reachable
   fun:_Znwm
   obj:/usr/lib/x86_64-linux-gnu/libLLVM-9.so.1
   fun:__pthread_once_slow
   fun:_ZN4llvm28createLoopStrengthReducePassEv
   fun:_ZN4llvm16TargetPassConfig11addIRPassesEv
   obj:/usr/lib/x86_64-linux-gnu/libLLVM-9.so.1
   fun:_ZN4llvm16TargetPassConfig13addISelPassesEv
   fun:_ZN4llvm17LLVMTargetMachine17addPassesToEmitMCERNS_6legacy15PassManagerBaseERPNS_9MCContextERNS_17raw_pwrite_streamEb
   fun:_ZN4llvm5MCJIT10emitObjectEPNS_6ModuleE
   fun:_ZN4llvm5MCJIT21generateCodeForModuleEPNS_6ModuleE
   fun:_ZN4llvm5MCJIT14finalizeObjectEv
   fun:LLVMGetPointerToGlobal
}
{
   <insert_a_suppression_name_here>
   Memcheck:Leak
   match-leak-kinds: reachable
   fun:_Znwm
   obj:/usr/lib/x86_64-linux-gnu/libLLVM-9.so.1
   fun:__pthread_once_slow
   fun:_ZN4llvm26createMergeICmpsLegacyPassEv
   fun:_ZN4llvm16TargetPassConfig11addIRPassesEv
   obj:/usr/lib/x86_64-linux-gnu/libLLVM-9.so.1
   fun:_ZN4llvm16TargetPassConfig13addISelPassesEv
   fun:_ZN4llvm17LLVMTargetMachine17addPassesToEmitMCERNS_6legacy15PassManagerBaseERPNS_9MCContextERNS_17raw_pwrite_streamEb
   fun:_ZN4llvm5MCJIT10emitObjectEPNS_6ModuleE
   fun:_ZN4llvm5MCJIT21generateCodeForModuleEPNS_6ModuleE
   fun:_ZN4llvm5MCJIT14finalizeObjectEv
   fun:LLVMGetPointerToGlobal
}
{
   <insert_a_suppression_name_here>
   Memcheck:Leak
   match-leak-kinds: reachable
   fun:_Znwm
   obj:/usr/lib/x86_64-linux-gnu/libLLVM-9.so.1
   fun:__pthread_once_slow
   fun:_ZN4llvm31createShadowStackGCLoweringPassEv
   fun:_ZN4llvm16TargetPassConfig11addIRPassesEv
   obj:/usr/lib/x86_64-linux-gnu/libLLVM-9.so.1
   fun:_ZN4llvm16TargetPassConfig13addISelPassesEv
   fun:_ZN4llvm17LLVMTargetMachine17addPassesToEmitMCERNS_6legacy15PassManagerBaseERPNS_9MCContextERNS_17raw_pwrite_streamEb
   fun:_ZN4llvm5MCJIT10emitObjectEPNS_6ModuleE
   fun:_ZN4llvm5MCJIT21generateCodeForModuleEPNS_6ModuleE
   fun:_ZN4llvm5MCJIT14finalizeObjectEv
   fun:LLVMGetPointerToGlobal
}
{
   <insert_a_suppression_name_here>
   Memcheck:Leak
   match-leak-kinds: reachable
   fun:_Znwm
   obj:/usr/lib/x86_64-linux-gnu/libLLVM-9.so.1
   fun:__pthread_once_slow
   fun:_ZN4llvm46initializeBranchProbabilityInfoWrapperPassPassERNS_12PassRegistryE
   obj:/usr/lib/x86_64-linux-gnu/libLLVM-9.so.1
   fun:__pthread_once_slow
   fun:_ZN4llvm43initializeBlockFrequencyInfoWrapperPassPassERNS_12PassRegistryE
   obj:/usr/lib/x86_64-linux-gnu/libLLVM-9.so.1
   fun:__pthread_once_slow
   fun:_ZN4llvm26createConstantHoistingPassEv
   fun:_ZN4llvm16TargetPassConfig11addIRPassesEv
   obj:/usr/lib/x86_64-linux-gnu/libLLVM-9.so.1
}
{
   <insert_a_suppression_name_here>
   Memcheck:Leak
   match-leak-kinds: reachable
   fun:_Znwm
   obj:/usr/lib/x86_64-linux-gnu/libLLVM-9.so.1
   fun:__pthread_once_slow
   fun:_ZN4llvm43initializeBlockFrequencyInfoWrapperPassPassERNS_12PassRegistryE
   obj:/usr/lib/x86_64-linux-gnu/libLLVM-9.so.1
   fun:__pthread_once_slow
   fun:_ZN4llvm26createConstantHoistingPassEv
   fun:_ZN4llvm16TargetPassConfig11addIRPassesEv
   obj:/usr/lib/x86_64-linux-gnu/libLLVM-9.so.1
   fun:_ZN4llvm16TargetPassConfig13addISelPassesEv
   fun:_ZN4llvm17LLVMTargetMachine17addPassesToEmitMCERNS_6legacy15PassManagerBaseERPNS_9MCContextERNS_17raw_pwrite_streamEb
   fun:_ZN4llvm5MCJIT10emitObjectEPNS_6ModuleE
}
{
   <insert_a_suppression_name_here>
   Memcheck:Leak
   match-leak-kinds: reachable
   fun:_Znwm
   obj:/usr/lib/x86_64-linux-gnu/libLLVM-9.so.1
   fun:__pthread_once_slow
   fun:_ZN4llvm26createConstantHoistingPassEv
   fun:_ZN4llvm16TargetPassConfig11addIRPassesEv
   obj:/usr/lib/x86_64-linux-gnu/libLLVM-9.so.1
   fun:_ZN4llvm16TargetPassConfig13addISelPassesEv
   fun:_ZN4llvm17LLVMTargetMachine17addPassesToEmitMCERNS_6legacy15PassManagerBaseERPNS_9MCContextERNS_17raw_pwrite_streamEb
   fun:_ZN4llvm5MCJIT10emitObjectEPNS_6ModuleE
   fun:_ZN4llvm5MCJIT21generateCodeForModuleEPNS_6ModuleE
   fun:_ZN4llvm5MCJIT14finalizeObjectEv
   fun:LLVMGetPointerToGlobal
}
{
   <insert_a_suppression_name_here>
   Memcheck:Leak
   match-leak-kinds: reachable
   fun:_Znwm
   obj:/usr/lib/x86_64-linux-gnu/libLLVM-9.so.1
   fun:__pthread_once_slow
   fun:_ZN4llvm33createPartiallyInlineLibCallsPassEv
   fun:_ZN4llvm16TargetPassConfig11addIRPassesEv
   obj:/usr/lib/x86_64-linux-gnu/libLLVM-9.so.1
   fun:_ZN4llvm16TargetPassConfig13addISelPassesEv
   fun:_ZN4llvm17LLVMTargetMachine17addPassesToEmitMCERNS_6legacy15PassManagerBaseERPNS_9MCContextERNS_17raw_pwrite_streamEb
   fun:_ZN4llvm5MCJIT10emitObjectEPNS_6ModuleE
   fun:_ZN4llvm5MCJIT21generateCodeForModuleEPNS_6ModuleE
   fun:_ZN4llvm5MCJIT14finalizeObjectEv
   fun:LLVMGetPointerToGlobal
}
{
   <insert_a_suppression_name_here>
   Memcheck:Leak
   match-leak-kinds: reachable
   fun:_Znwm
   obj:/usr/lib/x86_64-linux-gnu/libLLVM-9.so.1
   fun:__pthread_once_slow
   fun:_ZN4llvm41createPostInlineEntryExitInstrumenterPassEv
   fun:_ZN4llvm16TargetPassConfig11addIRPassesEv
   obj:/usr/lib/x86_64-linux-gnu/libLLVM-9.so.1
   fun:_ZN4llvm16TargetPassConfig13addISelPassesEv
   fun:_ZN4llvm17LLVMTargetMachine17addPassesToEmitMCERNS_6legacy15PassManagerBaseERPNS_9MCContextERNS_17raw_pwrite_streamEb
   fun:_ZN4llvm5MCJIT10emitObjectEPNS_6ModuleE
   fun:_ZN4llvm5MCJIT21generateCodeForModuleEPNS_6ModuleE
   fun:_ZN4llvm5MCJIT14finalizeObjectEv
   fun:LLVMGetPointerToGlobal
}
{
   <insert_a_suppression_name_here>
   Memcheck:Leak
   match-leak-kinds: reachable
   fun:_Znwm
   obj:/usr/lib/x86_64-linux-gnu/libLLVM-9.so.1
   fun:__pthread_once_slow
   fun:_ZN4llvm26createExpandReductionsPassEv
   fun:_ZN4llvm16TargetPassConfig11addIRPassesEv
   obj:/usr/lib/x86_64-linux-gnu/libLLVM-9.so.1
   fun:_ZN4llvm16TargetPassConfig13addISelPassesEv
   fun:_ZN4llvm17LLVMTargetMachine17addPassesToEmitMCERNS_6legacy15PassManagerBaseERPNS_9MCContextERNS_17raw_pwrite_streamEb
   fun:_ZN4llvm5MCJIT10emitObjectEPNS_6ModuleE
   fun:_ZN4llvm5MCJIT21generateCodeForModuleEPNS_6ModuleE
   fun:_ZN4llvm5MCJIT14finalizeObjectEv
   fun:LLVMGetPointerToGlobal
}
{
   <insert_a_suppression_name_here>
   Memcheck:Leak
   match-leak-kinds: reachable
   fun:_Znwm
   obj:/usr/lib/x86_64-linux-gnu/libLLVM-9.so.1
   fun:__pthread_once_slow
   fun:_ZN4llvm24createRewriteSymbolsPassEv
   fun:_ZN4llvm16TargetPassConfig17addCodeGenPrepareEv
   fun:_ZN4llvm16TargetPassConfig13addISelPassesEv
   fun:_ZN4llvm17LLVMTargetMachine17addPassesToEmitMCERNS_6legacy15PassManagerBaseERPNS_9MCContextERNS_17raw_pwrite_streamEb
   fun:_ZN4llvm5MCJIT10emitObjectEPNS_6ModuleE
   fun:_ZN4llvm5MCJIT21generateCodeForModuleEPNS_6ModuleE
   fun:_ZN4llvm5MCJIT14finalizeObjectEv
   fun:LLVMGetPointerToGlobal
   obj:*
}
{
   <insert_a_suppression_name_here>
   Memcheck:Leak
   match-leak-kinds: reachable
   fun:_Znwm
   obj:/usr/lib/x86_64-linux-gnu/libLLVM-9.so.1
   fun:__pthread_once_slow
   obj:/usr/lib/x86_64-linux-gnu/libLLVM-9.so.1
   fun:_ZN4llvm20createBreakFalseDepsEv
   obj:/usr/lib/x86_64-linux-gnu/libLLVM-9.so.1
   fun:_ZN4llvm16TargetPassConfig16addMachinePassesEv
   fun:_ZN4llvm17LLVMTargetMachine17addPassesToEmitMCERNS_6legacy15PassManagerBaseERPNS_9MCContextERNS_17raw_pwrite_streamEb
   fun:_ZN4llvm5MCJIT10emitObjectEPNS_6ModuleE
   fun:_ZN4llvm5MCJIT21generateCodeForModuleEPNS_6ModuleE
   fun:_ZN4llvm5MCJIT14finalizeObjectEv
   fun:LLVMGetPointerToGlobal
}
{
   <insert_a_suppression_name_here>
   Memcheck:Leak
   match-leak-kinds: definite
   fun:calloc
   obj:*
   obj:*
   obj:*
   obj:*
   obj:*
   obj:*
   obj:*
   obj:*
   obj:*
   obj:*
   obj:*
}
{
   <insert_a_suppression_name_here>
   Memcheck:Leak
   match-leak-kinds: reachable
   fun:_Znwm
   fun:_ZNSt6vectorISt10unique_ptrIKN4llvm8PassInfoESt14default_deleteIS3_EESaIS6_EE17_M_realloc_insertIJS6_EEEvN9__gnu_cxx17__normal_iteratorIPS6_S8_EEDpOT_
   fun:_ZN4llvm12PassRegistry12registerPassERKNS_8PassInfoEb
   obj:/usr/lib/x86_64-linux-gnu/libLLVM-9.so.1
   fun:__pthread_once_slow
   fun:_ZN4llvm21initializeRABasicPassERNS_12PassRegistryE
   fun:_ZN4llvm17initializeCodeGenERNS_12PassRegistryE
   fun:_ZN4llvm16TargetPassConfigC1ERNS_17LLVMTargetMachineERNS_6legacy15PassManagerBaseE
   fun:_ZN4llvm16X86TargetMachine16createPassConfigERNS_6legacy15PassManagerBaseE
   fun:_ZN4llvm17LLVMTargetMachine17addPassesToEmitMCERNS_6legacy15PassManagerBaseERPNS_9MCContextERNS_17raw_pwrite_streamEb
   fun:_ZN4llvm5MCJIT10emitObjectEPNS_6ModuleE
   fun:_ZN4llvm5MCJIT21generateCodeForModuleEPNS_6ModuleE
}
{
   <insert_a_suppression_name_here>
   Memcheck:Leak
   match-leak-kinds: reachable
   fun:_Znwm
   obj:/usr/lib/x86_64-linux-gnu/libLLVM-9.so.1
   obj:/usr/lib/x86_64-linux-gnu/libLLVM-9.so.1
   fun:_ZN4llvm5MCJIT21generateCodeForModuleEPNS_6ModuleE
   fun:_ZN4llvm5MCJIT14finalizeObjectEv
   fun:LLVMGetPointerToGlobal
   obj:*
   obj:*
   obj:*
   obj:*
   obj:*
   obj:*
}
{
   <insert_a_suppression_name_here>
   Memcheck:Leak
   match-leak-kinds: reachable
   fun:calloc
   fun:_ZN4llvm13StringMapImpl11RehashTableEj
   obj:/usr/lib/x86_64-linux-gnu/libLLVM-9.so.1
   fun:_ZN4llvm12PassRegistry12registerPassERKNS_8PassInfoEb
   obj:/usr/lib/x86_64-linux-gnu/libLLVM-9.so.1
   fun:__pthread_once_slow
   fun:_ZN4llvm30initializeMIRCanonicalizerPassERNS_12PassRegistryE
   fun:_ZN4llvm17initializeCodeGenERNS_12PassRegistryE
   fun:_ZN4llvm16TargetPassConfigC1ERNS_17LLVMTargetMachineERNS_6legacy15PassManagerBaseE
   fun:_ZN4llvm16X86TargetMachine16createPassConfigERNS_6legacy15PassManagerBaseE
   fun:_ZN4llvm17LLVMTargetMachine17addPassesToEmitMCERNS_6legacy15PassManagerBaseERPNS_9MCContextERNS_17raw_pwrite_streamEb
   fun:_ZN4llvm5MCJIT10emitObjectEPNS_6ModuleE
}
{
   <insert_a_suppression_name_here>
   Memcheck:Leak
   match-leak-kinds: reachable
   fun:_Znwm
   obj:/usr/lib/x86_64-linux-gnu/libLLVM-9.so.1
   obj:/usr/lib/x86_64-linux-gnu/libLLVM-9.so.1
   fun:_ZN4llvm12PassRegistry12registerPassERKNS_8PassInfoEb
   obj:/usr/lib/x86_64-linux-gnu/libLLVM-9.so.1
   fun:__pthread_once_slow
   fun:_ZN4llvm29initializeLowerIntrinsicsPassERNS_12PassRegistryE
   fun:_ZN4llvm17initializeCodeGenERNS_12PassRegistryE
   fun:_ZN4llvm16TargetPassConfigC1ERNS_17LLVMTargetMachineERNS_6legacy15PassManagerBaseE
   fun:_ZN4llvm16X86TargetMachine16createPassConfigERNS_6legacy15PassManagerBaseE
   fun:_ZN4llvm17LLVMTargetMachine17addPassesToEmitMCERNS_6legacy15PassManagerBaseERPNS_9MCContextERNS_17raw_pwrite_streamEb
   fun:_ZN4llvm5MCJIT10emitObjectEPNS_6ModuleE
}
